(dp0
S'w:rPr-w:kern+val'
p1
F0.020833333333333332
sS'w14:gsLst'
p2
F0.0030637254901960784
sS'a:graphic'
p3
F0.38909313725490197
sS'v:rect+allowincell+filled+gfxdata+spid+stroked+strokeweight+style'
p4
F0.0006127450980392157
sS'm:sSup'
p5
F0.003676470588235294
sS'a:endParaRPr+b+dirty+lang+sz'
p6
F0.0006127450980392157
sS'w:pPr-w:spacing+after+before+line+lineRule'
p7
F0.00857843137254902
sS'w:rPr-w:shd+color+fill+themeFill+themeFillShade+val'
p8
F0.0012254901960784314
sS'w:headerReference+type'
p9
F0.31433823529411764
sS'm:sSub'
p10
F0.00428921568627451
sS'w:framePr+hAnchor+vAnchor+w+wrap+x+y'
p11
F0.0006127450980392157
sS'w:docGrid+charSpace+linePitch'
p12
F0.003676470588235294
sS'wps:bodyPr+anchor+rtlCol'
p13
F0.0006127450980392157
sS'm:mc'
p14
F0.0012254901960784314
sS'w:smartTag+element'
p15
F0.08394607843137254
sS'w:dataBinding+prefixMappings+storeItemID+xpath'
p16
F0.003676470588235294
sS'w14:miter+lim'
p17
F0.0012254901960784314
sS'v:fill+title+type'
p18
F0.001838235294117647
sS'm:mr'
p19
F0.0012254901960784314
sS'w:rPr-w:vanish'
p20
F0.003676470588235294
sS'wp:positionV+relativeFrom'
p21
F0.22426470588235295
sS'w:text+multiLine'
p22
F0.0006127450980392157
sS'w:pPr-w:numPr'
p23
F0.08333333333333333
sS'a:sp3d+contourW'
p24
F0.0012254901960784314
sS'wp:start+x+y'
p25
F0.05514705882352941
sS'w:bottom+color+shadow+space+sz+val'
p26
F0.004901960784313725
sS'a:schemeClr+val'
p27
F0.044730392156862746
sS'w:alias+val'
p28
F0.0055147058823529415
sS'v:rect+fillcolor+hr+hralign+hrnoshade+hrstd+stroked+style'
p29
F0.0024509803921568627
sS'a:lvl1pPr+algn+defTabSz+eaLnBrk+hangingPunct+latinLnBrk+marL+rtl'
p30
F0.0006127450980392157
sS'w:tcPr-w:tcBorders'
p31
F0.13664215686274508
sS'w:framePr+h+w+wrap+x+y'
p32
F0.0006127450980392157
sS'w:pPr-w:spacing+after+line+lineRule'
p33
F0.04963235294117647
sS'w:sectPr-w:pgMar+bottom+gutter+left+right+top'
p34
F0.004901960784313725
sS'wps:style'
p35
F0.029411764705882353
sS'w:printerSettings'
p36
F0.0024509803921568627
sS'w:tcBorders-w:left+color+space+sz+themeColor+themeTint+val'
p37
F0.0006127450980392157
sS'w:sectPr-w:pgMar+bottom+footer+gutter+left+right+top'
p38
F0.0006127450980392157
sS'w:pPr-w:framePr+hAnchor+vAnchor+w+wrap+xAlign+yAlign'
p39
F0.0006127450980392157
sS'wpg:cNvGrpSpPr'
p40
F0.016544117647058824
sS'wp:align'
p41
F0.028799019607843136
sS'w:enabled+val'
p42
F0.0012254901960784314
sS'w10:wrap+anchorx+type'
p43
F0.0006127450980392157
sS'w:between+val'
p44
F0.0006127450980392157
sS'w:sectPr-w:pgMar+bottom+left+right+top'
p45
F0.0006127450980392157
sS'v:rect+filled+stroked+style'
p46
F0.0006127450980392157
sS'w:pgMar+bottom+gutter+left+right+top'
p47
F0.00980392156862745
sS'w:object+dxaOrig+dyaOrig'
p48
F0.034926470588235295
sS'w:sectPr-w:cols+space'
p49
F0.09068627450980392
sS'w:rtlGutter'
p50
F0.011029411764705883
sS'v:shape+fillcolor+gfxdata+spid+stroked+style+type'
p51
F0.003676470588235294
sS'v:shape+filled+gfxdata+spid+stroked+style+type'
p52
F0.017769607843137254
sS'v:shape+alt+cliptowrap+insetpen+strokecolor+stroked+strokeweight+style+type'
p53
F0.0006127450980392157
sS'w:caps'
p54
F0.06924019607843138
sS'w:pPr-w:keepNext'
p55
F0.007965686274509803
sS'm:opEmu+val'
p56
F0.0006127450980392157
sS'w:wordWrap'
p57
F0.0024509803921568627
sS'w:pPr-w:spacing+after+afterAutospacing'
p58
F0.001838235294117647
sS'v:shape+filled+gfxdata+strokeweight+style+type'
p59
F0.0006127450980392157
sS'o:fill+ext+type'
p60
F0.001838235294117647
sS'v:line+from+gfxdata+spid+strokeweight+style+to'
p61
F0.001838235294117647
sS'm:accPr'
p62
F0.0006127450980392157
sS'a:flatTx'
p63
F0.0006127450980392157
sS'w:tcBorders-w:top+val'
p64
F0.016544117647058824
sS'w:cols+num+sep+space'
p65
F0.003676470588235294
sS'w:tblpPr+horzAnchor+leftFromText+rightFromText+tblpXSpec+tblpY+vertAnchor'
p66
F0.022058823529411766
sS'w:tcW+type+w'
p67
F0.4117647058823529
sS'w:hyperlink+history+tgtFrame'
p68
F0.03799019607843137
sS'w:sdt'
p69
F0.031862745098039214
sS'v:shape+fillcolor+gfxdata+stroked+style+type'
p70
F0.001838235294117647
sS'w:tcBorders-w:right+color+space+sz+themeColor+val'
p71
F0.0055147058823529415
sS'v:rect+allowincell+gfxdata+spid+stroked+strokeweight+style'
p72
F0.0006127450980392157
sS'w:tblpPr+bottomFromText+horzAnchor+leftFromText+rightFromText+tblpY'
p73
F0.0006127450980392157
sS'w:spacing+afterAutospacing+before+beforeAutospacing'
p74
F0.0012254901960784314
sS'w:hyperlink+anchor'
p75
F0.0006127450980392157
sS'v:rect+filled+strokecolor+style'
p76
F0.0012254901960784314
sS'a:bevelB+h+prst+w'
p77
F0.0006127450980392157
sS'v:shape+allowincell+filled+gfxdata+spid+strokecolor+style+type'
p78
F0.0006127450980392157
sS'a:cNvSpPr+txBox'
p79
F0.0006127450980392157
sS'v:rect+strokecolor+style'
p80
F0.0006127450980392157
sS'v:stroke+dashstyle'
p81
F0.006127450980392157
sS'w:u+color'
p82
F0.0055147058823529415
sS'v:stroke+endarrow+endarrowlength+endarrowwidth+startarrowlength+startarrowwidth'
p83
F0.0006127450980392157
sS'w:textAlignment+val'
p84
F0.041666666666666664
sS'a:endParaRPr+lang'
p85
F0.0006127450980392157
sS'a:latin+charset+pitchFamily+typeface'
p86
F0.0006127450980392157
sS'v:fill+title'
p87
F0.0006127450980392157
sS'm:box'
p88
F0.0006127450980392157
sS'v:line+connectortype+from+gfxdata+spid+style+to'
p89
F0.0030637254901960784
sS'w:bottom+val'
p90
F0.10232843137254902
sS'v:oval+fillcolor+gfxdata+spid+strokecolor+style'
p91
F0.0006127450980392157
sS'w:insideH+color+space+sz+themeColor+themeTint+val'
p92
F0.0006127450980392157
sS'w:ind+left+leftChars+right'
p93
F0.0012254901960784314
sS'w:ind+left'
p94
F0.41360294117647056
sS'a:gs+pos'
p95
F0.0024509803921568627
sS'w:exitMacro+val'
p96
F0.0012254901960784314
sS'w:divId+val'
p97
F0.0012254901960784314
sS'v:path+arrowok'
p98
F0.01715686274509804
sS'w:shd+color+fill+themeFill+val'
p99
F0.02022058823529412
sS'v:shape+adj+alt+fillcolor+gfxdata+spid+style+type'
p100
F0.0006127450980392157
sS'v:shape+gfxdata+style+type'
p101
F0.003676470588235294
sS'a:endParaRPr+b+dirty+lang+smtClean+sz'
p102
F0.0006127450980392157
sS'w:rPr-w:u+color'
p103
F0.00428921568627451
sS'w:framePr+anchorLock+h+hAnchor+hRule+hSpace+vAnchor+w+wrap+y'
p104
F0.0006127450980392157
sS'v:imagedata+href'
p105
F0.0012254901960784314
sS'a:lvl5pPr+algn+defTabSz+eaLnBrk+hangingPunct+latinLnBrk+marL+rtl'
p106
F0.0006127450980392157
sS'a:srgbClr+Ignorable+val'
p107
F0.0006127450980392157
sS'w:pPr-w:shd+color+fill+themeFill+themeFillTint+val'
p108
F0.0012254901960784314
sS'w:tblpPr+bottomFromText+horzAnchor+leftFromText+rightFromText+tblpY+vertAnchor'
p109
F0.0006127450980392157
sS'v:imagedata+gain+title'
p110
F0.0006127450980392157
sS'w:cols+equalWidth+num+space'
p111
F0.014705882352941176
sS'w:insideH+val'
p112
F0.001838235294117647
sS'a:spcPct+val'
p113
F0.0006127450980392157
sS'm:mcJc+val'
p114
F0.0012254901960784314
sS'a:lvl9pPr+algn+defTabSz+eaLnBrk+hangingPunct+latinLnBrk+marL+rtl'
p115
F0.0006127450980392157
sS'a:graphicFrameLocks+noSelect'
p116
F0.0006127450980392157
sS'a:clrFrom'
p117
F0.0024509803921568627
sS'w:tcBorders-w:bottom+color+space+sz+themeColor+val'
p118
F0.004901960784313725
sS'w:tblpPr+horzAnchor+leftFromText+rightFromText+tblpY+vertAnchor'
p119
F0.01715686274509804
sS'v:rect+fillcolor+gfxdata+spid+style'
p120
F0.0006127450980392157
sS'w:suppressOverlap'
p121
F0.0006127450980392157
sS'w:rPr-w:bCs+val'
p122
F0.02144607843137255
sS'v:fill+color2+focus+focusposition+focussize+rotate+type'
p123
F0.0006127450980392157
sS'w:spacing+afterLines'
p124
F0.0012254901960784314
sS'v:path+connecttype+extrusionok'
p125
F0.0030637254901960784
sS'v:shadow+color+matrix+offset+on+opacity+origin+type'
p126
F0.001838235294117647
sS'v:shape+insetmode+style+type'
p127
F0.0006127450980392157
sS'a:srcRect+b+l+t'
p128
F0.001838235294117647
sS'a:srcRect+b+l+r'
p129
F0.0012254901960784314
sS'w:pPr-w:spacing+after+before+beforeAutospacing'
p130
F0.0006127450980392157
sS'w:ind+leftChars+right'
p131
F0.0012254901960784314
sS'w:pgMar+bottom+left+right+top'
p132
F0.0006127450980392157
sS'v:rect+gfxdata+spid+stroked+strokeweight+style'
p133
F0.0006127450980392157
sS'w:tcBorders-w:bottom+color+space+sz+themeColor+themeShade+val'
p134
F0.00428921568627451
sS'v:rect+fillcolor+hr+hralign+hrnoshade+hrpct+hrstd+stroked+style'
p135
F0.001838235294117647
sS'v:rect+allowincell+filled+gfxdata+spid+strokeweight+style'
p136
F0.0012254901960784314
sS'v:stroke+joinstyle'
p137
F0.1721813725490196
sS'w:spacing+before+beforeLines'
p138
F0.0024509803921568627
sS'v:shape+fillcolor+gfxdata+spid+strokecolor+strokeweight+style+type'
p139
F0.006127450980392157
sS'w14:bevelT+h+prst+w'
p140
F0.0006127450980392157
sS'a:avLst'
p141
F0.3854166666666667
sS'w:rPr-w:shadow'
p142
F0.0012254901960784314
sS'w:sectPr-w:cols+num+sep+space'
p143
F0.001838235294117647
sS'w:rPr-w:bdr+color+space+sz+val'
p144
F0.0055147058823529415
sS'w:insideV+color+space+sz+themeColor+themeShade+val'
p145
F0.004901960784313725
sS'v:line+from+strokeweight+style+to'
p146
F0.0024509803921568627
sS'v:shape+borderbottomcolor+borderleftcolor+borderrightcolor+bordertopcolor+ole+style+type'
p147
F0.001838235294117647
sS'w:rPrChange+author+date'
p148
F0.0024509803921568627
sS'v:shape+fillcolor+ole+style+type'
p149
F0.003676470588235294
sS'w:pPr-w:framePr+hAnchor+hSpace+vAnchor+wrap+x+y'
p150
F0.0006127450980392157
sS'v:shape+allowincell+style+type+wrapcoords'
p151
F0.0006127450980392157
sS'w:suppressLineNumbers'
p152
F0.0006127450980392157
sS'w:calendar+val'
p153
F0.004901960784313725
sS'v:shape+filled+gfxdata+spid+stroked+style+type+wrapcoords'
p154
F0.0006127450980392157
sS'a14:foregroundMark+x1+x2+y1+y2'
p155
F0.0006127450980392157
sS'w:tcBorders-w:right+color+space+sz+val'
p156
F0.1642156862745098
sS'v:line+from+strokecolor+style+to'
p157
F0.0012254901960784314
sS'w:size+val'
p158
F0.0055147058823529415
sS'v:rect+allowincell+strokecolor+style'
p159
F0.0006127450980392157
sS'w:tblLook+val'
p160
F0.17034313725490197
sS'w:enabled'
p161
F0.05698529411764706
sS'a:prstTxWarp+prst'
p162
F0.026348039215686275
sS'v:rect+allowincell+fillcolor+strokecolor+strokeweight+style'
p163
F0.0006127450980392157
sS'w10:wrap+anchorx+anchory+type'
p164
F0.012867647058823529
sS'w:pgNumType+fmt+start'
p165
F0.004901960784313725
sS'a:reflection+algn+blurRad+dir+dist+endPos+rotWithShape+stA+sy'
p166
F0.001838235294117647
sS'v:shape+filled+gfxdata+spid+strokecolor+stroked+strokeweight+style+type'
p167
F0.0006127450980392157
sS'w:wAfter+type+w'
p168
F0.028799019607843136
sS'v:shadow+color+offset+offset2+opacity+type'
p169
F0.0006127450980392157
sS'w14:noFill'
p170
F0.003676470588235294
sS'pic:pic'
p171
F0.35723039215686275
sS'w:docPartObj'
p172
F0.014093137254901961
sS'pic:blipFill'
p173
F0.35294117647058826
sS'w10:wrap+anchorx+anchory+side+type'
p174
F0.0006127450980392157
sS'v:shadow+color+offset'
p175
F0.0012254901960784314
sS'm:mPr'
p176
F0.0012254901960784314
sS'w14:alpha+val'
p177
F0.004901960784313725
sS'w:id+val'
p178
F0.031862745098039214
sS'w:pgSz+code+h+w'
p179
F0.16176470588235295
sS'w:rPr-w14:textOutline+algn+cap+cmpd+w'
p180
F0.004901960784313725
sS'w:listEntry+val'
p181
F0.003676470588235294
sS'w:ptab+alignment+leader+relativeTo'
p182
F0.0006127450980392157
sS'w:pPr-w:cnfStyle+evenHBand+evenVBand+firstColumn+firstRow+firstRowFirstColumn+firstRowLastColumn+lastColumn+lastRow+lastRowFirstColumn+lastRowLastColumn+oddHBand+oddVBand+val'
p183
F0.0006127450980392157
sS'v:rect+fillcolor+hr+hrpct+hrstd+stroked+style'
p184
F0.0006127450980392157
sS'w:contextualSpacing+val'
p185
F0.01838235294117647
sS'a:rPr+dirty+err+lang+smtClean'
p186
F0.0006127450980392157
sS'a:lvl8pPr+algn+defTabSz+eaLnBrk+hangingPunct+latinLnBrk+marL+rtl'
p187
F0.0006127450980392157
sS'a:graphicData'
p188
F0.38909313725490197
sS'w:moveFromRangeStart+author+date'
p189
F0.0006127450980392157
sS'a:lstStyle'
p190
F0.0006127450980392157
sS'w:type+val'
p191
F0.10294117647058823
sS'v:line+allowincell+from+gfxdata+spid+style+to'
p192
F0.003676470588235294
sS'w:txbxContent'
p193
F0.12867647058823528
sS'a:latin+typeface'
p194
F0.0006127450980392157
sS'a14:brightnessContrast+bright+contrast'
p195
F0.0024509803921568627
sS'a:bodyPr+anchor+anchorCtr+bIns+compatLnSpc+lIns+numCol+rIns+rtlCol+tIns+vert+wrap'
p196
F0.0006127450980392157
sS'v:rect+allowincell+fillcolor+filled+strokecolor+stroked+strokeweight+style'
p197
F0.0006127450980392157
sS'w:rPr-w14:props3d+contourW+extrusionH+prstMaterial'
p198
F0.0006127450980392157
sS'w:pPr-w:spacing+after+before'
p199
F0.020833333333333332
sS'w:docGrid+type'
p200
F0.0006127450980392157
sS'a:bevelT+h+prst+w'
p201
F0.0012254901960784314
sS'v:shape+allowincell+filled+gfxdata+spid+stroked+style+type'
p202
F0.0006127450980392157
sS'w:framePr+h+wrap+x+y'
p203
F0.0006127450980392157
sS'a:srgbClr+val'
p204
F0.08394607843137254
sS'w:numFmt+val'
p205
F0.009191176470588236
sS'a:prstClr+val'
p206
F0.007965686274509803
sS'v:shape+coordsize+fillcolor+path+strokecolor+strokeweight+style'
p207
F0.0006127450980392157
sS'm:funcPr'
p208
F0.0006127450980392157
sS'o:extrusion+backdepth+brightness+color+diffusity+ext+lightlevel+lightlevel2+lightposition+lightposition2+metal+on+skewangle+specularity+type+viewpoint+viewpointorigin'
p209
F0.0006127450980392157
sS'ma14:wrappingTextBoxFlag+val'
p210
F0.0006127450980392157
sS'v:roundrect+allowincell+arcsize+fillcolor+filled+gfxdata+spid+stroked+style'
p211
F0.0006127450980392157
sS'w:snapToGrid+val'
p212
F0.03002450980392157
sS'a:ext+cx+cy'
p213
F0.3854166666666667
sS'w:background+color+themeColor+themeTint'
p214
F0.0012254901960784314
sS'w:delText'
p215
F0.0024509803921568627
sS'o:extrusion+ext+lightposition+lightposition2+on'
p216
F0.0006127450980392157
sS'w14:shade+val'
p217
F0.0030637254901960784
sS'w:framePr+h+hAnchor+hRule+hSpace+vAnchor+w+wrap+x+y'
p218
F0.0006127450980392157
sS've:Choice+Requires'
p219
F0.0012254901960784314
sS'wp:wrapThrough+wrapText'
p220
F0.011029411764705883
sS'v:fill+colors+focus+method+type'
p221
F0.0006127450980392157
sS'w:pgNumType+chapStyle'
p222
F0.0006127450980392157
sS'w:br+clear+type'
p223
F0.011642156862745098
sS'w:permEnd'
p224
F0.0030637254901960784
sS'w:right+color+space+sz+val'
p225
F0.32230392156862747
sS'v:textpath+fitshape+on+xscale'
p226
F0.001838235294117647
sS'm:ctrlPr'
p227
F0.007352941176470588
sS'w:color+themeColor+themeShade+val'
p228
F0.049019607843137254
sS'w:pPr-w:spacing+after+afterAutospacing+before+beforeAutospacing'
p229
F0.0030637254901960784
sS'w:left+type+w'
p230
F0.1801470588235294
sS'v:imagedata+cropbottom+cropright+title'
p231
F0.0006127450980392157
sS'w:pPr-w:widowControl'
p232
F0.0006127450980392157
sS'dgm:relIds+cs+dm+lo+qs'
p233
F0.00428921568627451
sS'a:graphicFrameLocks+noGrp'
p234
F0.0012254901960784314
sS'a:hlinkClick+tooltip'
p235
F0.007965686274509803
sS'w:ind+hanging+right'
p236
F0.00857843137254902
sS'wps:bodyPr+wrap'
p237
F0.0012254901960784314
sS'wp:extent+cx+cy'
p238
F0.38909313725490197
sS'a:useSpRect'
p239
F0.0006127450980392157
sS'w14:bevel'
p240
F0.0006127450980392157
sS'w:pStyle+val'
p241
F0.6660539215686274
sS'a:lnTo'
p242
F0.004901960784313725
sS'a:tailEnd+type'
p243
F0.001838235294117647
sS'v:shape+fillcolor+stroked+style+type+wrapcoords'
p244
F0.0006127450980392157
sS'm:mcPr'
p245
F0.0012254901960784314
sS'w:ind+firstLineChars'
p246
F0.0012254901960784314
sS'w:keepLines+val'
p247
F0.001838235294117647
sS'w:rPr-w:color+themeColor+themeTint+val'
p248
F0.006127450980392157
sS'w:pgNumType+fmt'
p249
F0.0055147058823529415
sS'a:lvl7pPr+algn+defTabSz+eaLnBrk+hangingPunct+latinLnBrk+marL+rtl'
p250
F0.0006127450980392157
sS'a:outerShdw+blurRad+dir+dist+rotWithShape'
p251
F0.001838235294117647
sS'wpg:grpSpPr'
p252
F0.007352941176470588
sS'w:bCs+val'
p253
F0.07904411764705882
sS'w14:lumOff+val'
p254
F0.0006127450980392157
sS'w:widowControl'
p255
F0.028186274509803922
sS'a:noFill'
p256
F0.3180147058823529
sS'w:rPr-w:shd+color+fill+val'
p257
F0.058823529411764705
sS'a:prstGeom+prst'
p258
F0.38480392156862747
sS'a:satMod+val'
p259
F0.004901960784313725
sS'w:control+shapeid'
p260
F0.006127450980392157
sS'w:tcPr-w:gridSpan+val'
p261
F0.07352941176470588
sS'w:statusText+type+val'
p262
F0.003676470588235294
sS'a:normAutofit'
p263
F0.0006127450980392157
sS'v:shape+spid+style+type'
p264
F0.01715686274509804
sS'w:autoSpaceDN'
p265
F0.014705882352941176
sS'w:placeholder'
p266
F0.012867647058823529
sS'a:sp'
p267
F0.0006127450980392157
sS'w:top+color+space+sz+themeColor+val'
p268
F0.013480392156862746
sS'w:tcBorders-w:left+color+space+sz+themeColor+themeShade+val'
p269
F0.0024509803921568627
sS'w:rPr-w:snapToGrid+val'
p270
F0.00980392156862745
sS'w:rPr-w:strike'
p271
F0.00428921568627451
sS'a14:hiddenLine+algn+w'
p272
F0.0006127450980392157
sS'v:shape+fillcolor+strokeweight+style+type'
p273
F0.0006127450980392157
sS'v:polyline+coordsize+filled+gfxdata+points+spid+style'
p274
F0.0006127450980392157
sS'w:rPr-w:noProof'
p275
F0.33578431372549017
sS'w:hideMark'
p276
F0.0900735294117647
sS'v:shape+coordsize+fillcolor+gfxdata+path+spid+strokecolor+strokeweight+style'
p277
F0.0024509803921568627
sS'w:rPr-w:u+val'
p278
F0.4638480392156863
sS'v:shadow+color+opacity'
p279
F0.0006127450980392157
sS'v:shape+allowoverlap+ole+style+type'
p280
F0.0012254901960784314
sS'v:shape+adj+connectortype+style+type'
p281
F0.0006127450980392157
sS'w:sectPr-w:docGrid+linePitch'
p282
F0.8333333333333334
sS'w:rPr-w:shadow+val'
p283
F0.0006127450980392157
sS'a:srcRect+r+t'
p284
F0.0012254901960784314
sS'm:mcs'
p285
F0.0012254901960784314
sS'w:pPr-w:shd+color+fill+themeFill+val'
p286
F0.001838235294117647
sS'wps:bodyPr+fromWordArt+numCol+wrap'
p287
F0.0012254901960784314
sS'a:nvGrpSpPr'
p288
F0.0006127450980392157
sS'v:shape+fillcolor+gfxdata+spid+strokecolor+style+type'
p289
F0.0006127450980392157
sS'v:rect+strokeweight+style'
p290
F0.0012254901960784314
sS'v:shapetype+adj+coordsize+path+spt'
p291
F0.02022058823529412
sS'v:fill+opacity+recolor+rotate+title+type'
p292
F0.0006127450980392157
sS'v:shape+fillcolor+filled+insetpen+strokecolor+strokeweight+style+type'
p293
F0.0006127450980392157
sS'w:tblpPr+horzAnchor+leftFromText+rightFromText+tblpX+tblpYSpec'
p294
F0.0006127450980392157
sS'v:rect+filled+gfxdata+spid+stroked+style'
p295
F0.006740196078431373
sS'w:sz+val'
p296
F0.90625
sS'a:grayscl'
p297
F0.00428921568627451
sS'v:oval+fillcolor+style'
p298
F0.0012254901960784314
sS'wpc:whole'
p299
F0.0030637254901960784
sS'wps:spPr+bwMode'
p300
F0.061887254901960786
sS'a:outerShdw+algn+blurRad+dir+dist+rotWithShape'
p301
F0.009191176470588236
sS'v:oval+allowincell+filled+strokeweight+style'
p302
F0.0006127450980392157
sS'wp:docPr+title'
p303
F0.0012254901960784314
sS'wps:cNvSpPr+txBox'
p304
F0.05330882352941176
sS'v:shape+gfxdata+spid+strokecolor+style+type'
p305
F0.004901960784313725
sS'w:p+paraId+textId'
p306
F0.0821078431372549
sS'v:shape+adj+fillcolor+strokecolor+stroked+style+type'
p307
F0.0006127450980392157
sS'v:shadow+color+offset+on+opacity+origin'
p308
F0.003676470588235294
sS'w:ind+rightChars'
p309
F0.0006127450980392157
sS'v:h+position+switch+xrange'
p310
F0.0012254901960784314
sS'o:lock+aspectratio+ext+shapetype'
p311
F0.0006127450980392157
sS'm:dPr'
p312
F0.00428921568627451
sS'v:rect+fillcolor+stroked+style'
p313
F0.0024509803921568627
sS'w:kern+val'
p314
F0.08333333333333333
sS'w:tl2br+color+space+sz+val'
p315
F0.0012254901960784314
sS'w:tcBorders-w:bottom+color+space+sz+themeColor+themeTint+val'
p316
F0.0006127450980392157
sS'a14:useLocalDpi'
p317
F0.0030637254901960784
sS'w:tblpPr+bottomFromText+rightFromText+tblpY+vertAnchor'
p318
F0.0006127450980392157
sS'v:shape+filled+stroked+style+type'
p319
F0.00980392156862745
sS'pic:cNvPr'
p320
F0.35723039215686275
sS'v:shape+filled+gfxdata+spid+stroked+strokeweight+style+type'
p321
F0.00428921568627451
sS'v:roundrect+allowincell+arcsize+fillcolor+gfxdata+spid+strokecolor+strokeweight+style'
p322
F0.0006127450980392157
sS'v:stroke+title'
p323
F0.0006127450980392157
sS'w:right+color+space+sz+themeColor+val'
p324
F0.012254901960784314
sS'a:custGeom'
p325
F0.006127450980392157
sS'w:pPr-w:textAlignment+val'
p326
F0.003676470588235294
sS'w:hyperlink+history+tooltip'
p327
F0.026348039215686275
sS'w:pPr-w:keepLines'
p328
F0.00428921568627451
sS'v:stroke+startarrow'
p329
F0.0012254901960784314
sS'w14:solidFill'
p330
F0.007965686274509803
sS'a:ln+algn+cap+cmpd+w'
p331
F0.00857843137254902
sS'v:rect+allowincell+gfxdata+spid+style'
p332
F0.0012254901960784314
sS'v:oval+fillcolor+strokecolor+strokeweight+style'
p333
F0.0006127450980392157
sS'v:shadow+on+opacity'
p334
F0.0012254901960784314
sS'a:srcRect+l+r'
p335
F0.006740196078431373
sS'w:rPr-w:w+val'
p336
F0.007965686274509803
sS'a:srcRect+l+t'
p337
F0.001838235294117647
sS'v:imagedata+blacklevel+gain+grayscale+title'
p338
F0.0006127450980392157
sS'w:pPr-w:spacing+afterLines+beforeLines'
p339
F0.0006127450980392157
sS'v:shape+alt+spid+stroked+strokeweight+style+type'
p340
F0.0006127450980392157
sS'w:wordWrap+val'
p341
F0.0006127450980392157
sS'a:sp3d'
p342
F0.0030637254901960784
sS'a:gdLst'
p343
F0.006127450980392157
sS'w:docPart+val'
p344
F0.012867647058823529
sS'v:shape+borderbottomcolor+borderleftcolor+borderrightcolor+bordertopcolor+spid+style+type'
p345
F0.0006127450980392157
sS'ma14:placeholderFlag'
p346
F0.0012254901960784314
sS'a:lvl2pPr+algn+fontAlgn+marL+rtl'
p347
F0.0006127450980392157
sS'v:shape+adj+fillcolor+gfxdata+spid+strokecolor+strokeweight+style+type'
p348
F0.00428921568627451
sS'w:color+themeColor+themeTint+val'
p349
F0.015931372549019607
sS'v:shape+adj+allowincell+gfxdata+spid+style+type'
p350
F0.0006127450980392157
sS'w:ind+firstLine+firstLineChars+left+leftChars+right'
p351
F0.0006127450980392157
sS'w:pPr-w:spacing+after+afterAutospacing+before'
p352
F0.0006127450980392157
sS'v:fill+color2+focus+rotate+type'
p353
F0.0006127450980392157
sS'w:framePr+dropCap+hAnchor+lines+vAnchor+wrap'
p354
F0.003676470588235294
sS'w:vertAlign+val'
p355
F0.21691176470588236
sS'v:shape+filled+stroked+strokeweight+style+type'
p356
F0.0012254901960784314
sS'a:ln+cap'
p357
F0.0006127450980392157
sS'w:overflowPunct+val'
p358
F0.0196078431372549
sS'm:boxPr'
p359
F0.0006127450980392157
sS'v:path+connectlocs+connecttype+extrusionok+gradientshapeok+textboxrect'
p360
F0.0012254901960784314
sS'a:lin+ang+scaled'
p361
F0.001838235294117647
sS'a:sp3d+extrusionH+prstMaterial'
p362
F0.0006127450980392157
sS'v:shape+coordsize+filled+gfxdata+path+spid+strokecolor+strokeweight+style'
p363
F0.0030637254901960784
sS'w:tr'
p364
F0.3786764705882353
sS'a:xfrm+flipH+rot'
p365
F0.001838235294117647
sS'v:shape+alt+style+type'
p366
F0.0030637254901960784
sS'v:shape+gfxdata+spid+strokecolor+strokeweight+style+type'
p367
F0.00428921568627451
sS'v:shape+bullet+ole+style+type'
p368
F0.0006127450980392157
sS'v:oval+fillcolor+filled+gfxdata+spid+strokecolor+strokeweight+style'
p369
F0.0006127450980392157
sS'a:lightRig+dir+rig'
p370
F0.006127450980392157
sS'w:strike'
p371
F0.015318627450980392
sS'w:spacing+beforeLines+line+lineRule'
p372
F0.0006127450980392157
sS'v:imagedata+cropbottom+croptop+title'
p373
F0.0006127450980392157
sS'c:chart'
p374
F0.012867647058823529
sS'a:buNone'
p375
F0.0006127450980392157
sS'v:rect+alt+fillcolor+gfxdata+spid+strokecolor+strokeweight+style'
p376
F0.0006127450980392157
sS'a:outerShdw+algn+blurRad+rotWithShape'
p377
F0.001838235294117647
sS'v:rect+fillcolor+hr+hralign+hrstd+stroked+style'
p378
F0.006740196078431373
sS'w:tr+paraId+textId'
p379
F0.03308823529411765
sS'a:scrgbClr+b+g+r'
p380
F0.0006127450980392157
sS'v:path+connectangles+connectlocs+connecttype+gradientshapeok+textboxrect'
p381
F0.0006127450980392157
sS'w:iCs'
p382
F0.26715686274509803
sS'm:jc+val'
p383
F0.0012254901960784314
sS'v:shape+regroupid+strokecolor+style+type'
p384
F0.0006127450980392157
sS'w:spacing+after+before+beforeAutospacing'
p385
F0.007965686274509803
sS'wp:lineTo+x+y'
p386
F0.05514705882352941
sS'a:cubicBezTo'
p387
F0.0006127450980392157
sS'v:fill+recolor+title+type'
p388
F0.0030637254901960784
sS'v:stroke+opacity'
p389
F0.001838235294117647
sS'w:lnNumType+countBy+restart'
p390
F0.0012254901960784314
sS'w:spacing+before+line+lineRule'
p391
F0.05698529411764706
sS'v:f+eqn'
p392
F0.0974264705882353
sS'w:u+color+themeColor+themeShade'
p393
F0.0006127450980392157
sS'w:tcBorders-w:tr2bl+color+space+sz+val'
p394
F0.001838235294117647
sS'm:func'
p395
F0.0006127450980392157
sS'a:extLst'
p396
F0.22855392156862744
sS'w:framePr+hAnchor+vAnchor+wrap+x+y'
p397
F0.0012254901960784314
sS'v:rect+gfxdata+style'
p398
F0.0012254901960784314
sS'v:rect+fillcolor+gfxdata+spid+strokecolor+strokeweight+style'
p399
F0.0055147058823529415
sS'v:shape+ole+style+type'
p400
F0.03125
sS'w:spacing+after+before'
p401
F0.10416666666666667
sS'v:line+allowincell+from+gfxdata+spid+strokecolor+strokeweight+style+to'
p402
F0.0006127450980392157
sS'w:ind+firstLine+firstLineChars+left+leftChars'
p403
F0.0006127450980392157
sS'v:shape+coordsize+fillcolor+gfxdata+path+spid+stroked+style'
p404
F0.001838235294117647
sS'w:moveTo+author+date'
p405
F0.0006127450980392157
sS'w:softHyphen'
p406
F0.03125
sS'v:fill+angle+color2+colors+method+type'
p407
F0.0006127450980392157
sS'a:tint+val'
p408
F0.0012254901960784314
sS'w:textDirection+val'
p409
F0.00857843137254902
sS'w:spacing+after+afterAutospacing+before+beforeAutospacing+line+lineRule'
p410
F0.08149509803921569
sS'o:right+color+ext+weight'
p411
F0.0006127450980392157
sS'a:scene3d'
p412
F0.006127450980392157
sS'wp:wrapNone'
p413
F0.14276960784313725
sS'v:stroke+miterlimit'
p414
F0.0006127450980392157
sS'v:stroke+endcap+joinstyle'
p415
F0.0006127450980392157
sS'pic:nvPicPr'
p416
F0.35723039215686275
sS'w:pgSz+code+h+orient+w'
p417
F0.017769607843137254
sS'v:roundrect+arcsize+fillcolor+gfxdata+spid+strokeweight+style'
p418
F0.0006127450980392157
sS'a:cxnLst'
p419
F0.006127450980392157
sS'wp:wrapTight+wrapText'
p420
F0.04595588235294118
sS'a:ln+cmpd'
p421
F0.0006127450980392157
sS'v:fill+color2+recolor+rotate+title+type'
p422
F0.0006127450980392157
sS'v:line+from+strokecolor+strokeweight+style+to'
p423
F0.0012254901960784314
sS'w:tcPr-w:noWrap'
p424
F0.012254901960784314
sS'w:cantSplit'
p425
F0.06311274509803921
sS'v:shape+cliptowrap+insetpen+strokecolor+stroked+style+type'
p426
F0.0006127450980392157
sS'v:rect+alt+fillcolor+gfxdata+spid+strokeweight+style'
p427
F0.0006127450980392157
sS'v:path+connecttype+extrusionok+gradientshapeok'
p428
F0.08149509803921569
sS'v:shape+coordorigin+coordsize+fillcolor+path+stroked+style'
p429
F0.001838235294117647
sS'w:caps+val'
p430
F0.010416666666666666
sS'w:tcBorders-w:left+val'
p431
F0.016544117647058824
sS'a:path+w'
p432
F0.0030637254901960784
sS'w:bidi+val'
p433
F0.0012254901960784314
sS'wps:bodyPr+anchor+anchorCtr+bIns+compatLnSpc+lIns+numCol+rIns+rtlCol+tIns+vert+wrap'
p434
F0.0006127450980392157
sS'a:path+h'
p435
F0.001838235294117647
sS'w:rPr-w:szCs+val'
p436
F0.8725490196078431
sS'a14:backgroundMark+x1+x2+y1+y2'
p437
F0.0006127450980392157
sS'v:shape+coordsize+fillcolor+gfxdata+path+spid+strokeweight+style'
p438
F0.0006127450980392157
sS'a:lnSpc'
p439
F0.0006127450980392157
sS'w:checkBox'
p440
F0.0428921568627451
sS'w:bCs'
p441
F0.5496323529411765
sS'a:spLocks+noChangeArrowheads+noChangeAspect'
p442
F0.001838235294117647
sS'v:rect+gfxdata+spid+strokecolor+style'
p443
F0.0006127450980392157
sS'w:framePr+hAnchor+hRule+vAnchor+w+wrap+xAlign+yAlign'
p444
F0.0006127450980392157
sS'w:rPr-w:snapToGrid'
p445
F0.0006127450980392157
sS'a:tailEnd+len+type+w'
p446
F0.0055147058823529415
sS'w:position+val'
p447
F0.03676470588235294
sS'o:lock+aspectratio+ext'
p448
F0.08517156862745098
sS'm:groupChr'
p449
F0.0006127450980392157
sS'w:sectPr-w:printerSettings'
p450
F0.0024509803921568627
sS'w:spacing+after+afterAutospacing+beforeAutospacing+line+lineRule'
p451
F0.0012254901960784314
sS'w:shd+color+fill+themeFill+themeFillShade+val'
p452
F0.03125
sS'v:shape+coordorigin+coordsize+filled+path+strokeweight+style'
p453
F0.0024509803921568627
sS'w:framePr+h+hAnchor+hRule+vAnchor+w+wrap+x+y'
p454
F0.0012254901960784314
sS'v:line+from+style+to'
p455
F0.003676470588235294
sS'w:tblGridChange'
p456
F0.0006127450980392157
sS'w:noBreakHyphen'
p457
F0.012867647058823529
sS'v:rect+filled+gfxdata+spid+strokecolor+strokeweight+style'
p458
F0.003676470588235294
sS'w:b+val'
p459
F0.1715686274509804
sS'w:ind+firstLine+firstLineChars+left'
p460
F0.0006127450980392157
sS'a:endParaRPr+dirty+lang+smtClean+sz'
p461
F0.0006127450980392157
sS'v:shape+coordsize+filled+path+strokecolor+style'
p462
F0.0006127450980392157
sS'a:spPr'
p463
F0.0006127450980392157
sS'a:hlinkClick'
p464
F0.0196078431372549
sS'o:lock+ext+selection'
p465
F0.0006127450980392157
sS'w:pPr-w:rPr'
p466
F0.9852941176470589
sS'a:defPPr'
p467
F0.0006127450980392157
sS'v:textbox'
p468
F0.08149509803921569
sS'w:framePr+hSpace+w+wrap+x+y'
p469
F0.0006127450980392157
sS'v:group+coordorigin+coordsize+style+wrapcoords'
p470
F0.0006127450980392157
sS'w:commentRangeEnd'
p471
F0.0030637254901960784
sS'w:smartTagPr'
p472
F0.03002450980392157
sS'm:radPr'
p473
F0.0030637254901960784
sS'v:shape+allowincell+stroked+style+type'
p474
F0.0012254901960784314
sS'w14:uncheckedState+font+val'
p475
F0.007352941176470588
sS'w:moveToRangeEnd'
p476
F0.0006127450980392157
sS'wp:positionH+relativeFrom'
p477
F0.22426470588235295
sS'a:hlinkClick+tgtFrame'
p478
F0.00428921568627451
sS'w:bar+color+sz+val'
p479
F0.0055147058823529415
sS'w:br+type'
p480
F0.21875
sS'v:fill+opacity+title+type'
p481
F0.0006127450980392157
sS'w10:borderbottom+type+width'
p482
F0.0024509803921568627
sS'w:right+color+shadow+space+sz+val'
p483
F0.004901960784313725
sS'w14:satMod+val'
p484
F0.0030637254901960784
sS'v:shape+regroupid+stroked+style+type'
p485
F0.0012254901960784314
sS'a:xfrm+flipH'
p486
F0.0055147058823529415
sS'v:shape+fillcolor+filled+gfxdata+spid+style+type'
p487
F0.0006127450980392157
sS'w:tblpPr+horzAnchor+leftFromText+rightFromText+tblpYSpec+vertAnchor'
p488
F0.0012254901960784314
sS'v:shadow+color+offset+offset2'
p489
F0.0012254901960784314
sS'w:pPr-w:ind+firstLine+firstLineChars'
p490
F0.0006127450980392157
sS'a:effectRef+idx'
p491
F0.03002450980392157
sS'a:xfrm+flipV'
p492
F0.007965686274509803
sS'v:path+arrowok+textboxrect'
p493
F0.0006127450980392157
sS'v:shape+connectortype+strokecolor+style+type'
p494
F0.0030637254901960784
sS'v:shape+adj+connectortype+strokecolor+stroked+style+type'
p495
F0.0006127450980392157
sS'w:ind+firstLine+left+rightChars'
p496
F0.0006127450980392157
sS'w:top+color+space+sz+themeColor+themeShade+val'
p497
F0.00857843137254902
sS'v:rect+filled+strokecolor+stroked+strokeweight+style'
p498
F0.0006127450980392157
sS'a:cNvPicPr'
p499
F0.0006127450980392157
sS'w:bottom+type+w'
p500
F0.08026960784313726
sS'w:rPr-w:spacing+val'
p501
F0.031862745098039214
sS'w:ind+left+right'
p502
F0.10355392156862746
sS'a:graphicFrameLocks+noChangeAspect'
p503
F0.34558823529411764
sS'w:tcPr-w:shd+color+fill+themeColor+val'
p504
F0.0006127450980392157
sS'v:shape+allowincell+filled+gfxdata+spid+style+type'
p505
F0.0006127450980392157
sS'v:shape+coordsize+filled+path+style'
p506
F0.0006127450980392157
sS'w:tblpPr+horzAnchor+leftFromText+rightFromText+tblpX+tblpY'
p507
F0.0006127450980392157
sS'a:miter+lim'
p508
F0.17095588235294118
sS'v:path+arrowok+connecttype+fillok'
p509
F0.0196078431372549
sS'a:pPr+algn'
p510
F0.0006127450980392157
sS'w:drawing'
p511
F0.38909313725490197
sS'a:lvl4pPr+algn+defTabSz+eaLnBrk+hangingPunct+latinLnBrk+marL+rtl'
p512
F0.0006127450980392157
sS'v:shape+allowincell+coordsize+filled+path+strokecolor+strokeweight+style'
p513
F0.0006127450980392157
sS'w:pPr-w:bidi+val'
p514
F0.0006127450980392157
sS'w:pPr-w:jc+val'
p515
F0.2855392156862745
sS'w:tblLayout+type'
p516
F0.17769607843137256
sS'a:picLocks+noChangeArrowheads+noChangeAspect+noCrop'
p517
F0.0006127450980392157
sS'wps:spPr'
p518
F0.03553921568627451
sS'm:fName'
p519
F0.0006127450980392157
sS'a:pattFill+prst'
p520
F0.0012254901960784314
sS'wps:bodyPr+rtlCol+wrap'
p521
F0.0012254901960784314
sS'w14:contourClr'
p522
F0.0006127450980392157
sS'w:format+val'
p523
F0.007965686274509803
sS'w:pPr-w:ind+firstLine+left+right'
p524
F0.0024509803921568627
sS'a:spPr+bwMode'
p525
F0.0006127450980392157
sS'v:rect+gfxdata+spid+strokeweight+style'
p526
F0.0012254901960784314
sS'w:rPr-w:shd+color+fill+themeFill+themeFillTint+val'
p527
F0.0012254901960784314
sS'w:suppressLineNumbers+val'
p528
F0.0012254901960784314
sS'a:cs+charset+pitchFamily+typeface'
p529
F0.0006127450980392157
sS'o:extrusion+ext+rotationangle'
p530
F0.0006127450980392157
sS'v:rect+alt+gfxdata+spid+style'
p531
F0.0006127450980392157
sS'w:overflowPunct'
p532
F0.00857843137254902
sS'w:spacing+afterLines+beforeLines+line+lineRule'
p533
F0.0006127450980392157
sS'v:stroke+startarrow+startarrowwidth'
p534
F0.0006127450980392157
sS'v:imagedata+cropleft+cropright+title'
p535
F0.0006127450980392157
sS'm:t'
p536
F0.009191176470588236
sS'v:fill+color2+method+type'
p537
F0.0006127450980392157
sS'v:shape+filled+ole+style+type'
p538
F0.0006127450980392157
sS'v:path+textboxrect'
p539
F0.0006127450980392157
sS'v:shape+alt+bullet+style+type'
p540
F0.0006127450980392157
sS'w:col+w'
p541
F0.018995098039215685
sS'w:ind+firstLine'
p542
F0.19730392156862744
sS'v:rect+filled+gfxdata+spid+strokeweight+style'
p543
F0.0012254901960784314
sS'w:hidden'
p544
F0.0006127450980392157
sS'v:rect+filled+gfxdata+spid+strokecolor+stroked+strokeweight+style'
p545
F0.0006127450980392157
sS'v:shape+allowincell+fillcolor+stroked+style+type'
p546
F0.0006127450980392157
sS'a:xfrm+flipV+rot'
p547
F0.0012254901960784314
sS'w:tblpPr+bottomFromText+leftFromText+rightFromText+tblpX+tblpY+vertAnchor'
p548
F0.0006127450980392157
sS'w:between+color+space+sz+val'
p549
F0.007352941176470588
sS'v:rect+fillcolor+style'
p550
F0.0030637254901960784
sS'a:latin+charset+typeface'
p551
F0.0006127450980392157
sS'v:line+from+gfxdata+spid+strokecolor+strokeweight+style+to'
p552
F0.0055147058823529415
sS'v:shape+alt+gfxdata+spid+stroked+style+type'
p553
F0.0006127450980392157
sS'a:bgClr'
p554
F0.0012254901960784314
sS'v:rect+fillcolor+gfxdata+spid+strokecolor+style'
p555
F0.0012254901960784314
sS'v:roundrect+arcsize+gfxdata+spid+style'
p556
F0.0006127450980392157
sS'a:tailEnd'
p557
F0.17830882352941177
sS'v:rect+fillcolor+filled+gfxdata+spid+stroked+style+wrapcoords'
p558
F0.0006127450980392157
sS'w:lastRenderedPageBreak'
p559
F0.6580882352941176
sS'w:pPr-w:ind+left+right'
p560
F0.014093137254901961
sS'a:blip+cstate+link'
p561
F0.004901960784313725
sS'v:path+connectlocs+connecttype+textboxrect'
p562
F0.0030637254901960784
sS'w:sectPr-w:cols+equalWidth+num+space'
p563
F0.0024509803921568627
sS'v:shape+alt+spid+strokecolor+stroked+style+type'
p564
F0.0006127450980392157
sS'w:tcPr-w:tcW+type+w'
p565
F0.2426470588235294
sS'w:showingPlcHdr'
p566
F0.014093137254901961
sS'm:limLow'
p567
F0.0006127450980392157
sS'wp:wrapPolygon+edited'
p568
F0.05514705882352941
sS'w:jc+val'
p569
F0.8241421568627451
sS'v:path+connectlocs+connecttype+gradientshapeok+textboxrect'
p570
F0.003676470588235294
sS'w:ind+hanging+left+right'
p571
F0.042279411764705885
sS'a:spLocks+noChangeArrowheads+noChangeAspect+noSelect'
p572
F0.0006127450980392157
sS'w:gridSpan+val'
p573
F0.18321078431372548
sS'w:tr2bl+val'
p574
F0.0012254901960784314
sS'a:lvl6pPr+algn+defTabSz+eaLnBrk+hangingPunct+latinLnBrk+marL+rtl'
p575
F0.0006127450980392157
sS'v:shape+filled+gfxdata+stroked+style+type'
p576
F0.003676470588235294
sS'w:cols+space'
p577
F0.9724264705882353
sS'a:cxnSpLocks+noChangeShapeType'
p578
F0.011642156862745098
sS'a:blipFill+dpi+rotWithShape'
p579
F0.001838235294117647
sS'v:shape+spid+style+type+wrapcoords'
p580
F0.001838235294117647
sS'v:fill+color2+focus+focusposition+focussize+method+type'
p581
F0.0006127450980392157
sS'w:strike+val'
p582
F0.0006127450980392157
sS'w:pPr-w:suppressAutoHyphens+val'
p583
F0.001838235294117647
sS'w:ind+firstLineChars+right'
p584
F0.0006127450980392157
sS'a:srcRect+b+l+r+t'
p585
F0.01838235294117647
sS'wp:inline+distB+distL+distR+distT'
p586
F0.2506127450980392
sS'v:handles'
p587
F0.02144607843137255
sS'v:rect+stroked+strokeweight+style'
p588
F0.0006127450980392157
sS'v:group+allowincell+coordorigin+coordsize+style'
p589
F0.0012254901960784314
sS'w:bottom+color+space+sz+themeColor+themeShade+val'
p590
F0.00980392156862745
sS'w:ind+left+leftChars'
p591
F0.003676470588235294
sS'v:rect+fillcolor+strokecolor+style'
p592
F0.001838235294117647
sS'a:lum'
p593
F0.0012254901960784314
sS'wps:cNvPr'
p594
F0.016544117647058824
sS'a:grpFill'
p595
F0.0012254901960784314
sS'o:top+color+ext+weight'
p596
F0.0006127450980392157
sS'a:camera+prst'
p597
F0.006127450980392157
sS'a:lvl5pPr+algn+fontAlgn+marL+rtl'
p598
F0.0006127450980392157
sS'a:ahLst'
p599
F0.006127450980392157
sS'v:formulas'
p600
F0.09803921568627451
sS'v:h+position+yrange'
p601
F0.007352941176470588
sS'w:sz-cs+val'
p602
F0.0006127450980392157
sS'o:lock+ext+grouping'
p603
F0.001838235294117647
sS'v:line+cliptowrap+from+strokecolor+strokeweight+style+to'
p604
F0.0006127450980392157
sS'w:ind+hanging+hangingChars+left+right'
p605
F0.0012254901960784314
sS'w:endnoteReference'
p606
F0.0024509803921568627
sS'w:pPr-w:pStyle+val'
p607
F0.21017156862745098
sS'w:tblpPr+bottomFromText+leftFromText+rightFromText+tblpY+vertAnchor'
p608
F0.0006127450980392157
sS'w:footnoteReference+customMarkFollows'
p609
F0.006740196078431373
sS'w:pPr-w:framePr+h+hRule+w+wrap+x+y'
p610
F0.0006127450980392157
sS'v:shadow+color+on'
p611
F0.0006127450980392157
sS'a:blip'
p612
F0.1954656862745098
sS'v:roundrect+arcsize+fillcolor+style'
p613
F0.0006127450980392157
sS'v:shape+fillcolor+gfxdata+spid+strokeweight+style+type'
p614
F0.003676470588235294
sS'a:outerShdw+algn+dir+dist+rotWithShape'
p615
F0.006740196078431373
sS'm:r'
p616
F0.009191176470588236
sS'w:name+val'
p617
F0.05698529411764706
sS'w:background+color+themeColor+themeShade'
p618
F0.0012254901960784314
sS'm:d'
p619
F0.00428921568627451
sS'm:e'
p620
F0.007352941176470588
sS'm:f'
p621
F0.0055147058823529415
sS'w:ind+firstLine+firstLineChars'
p622
F0.011029411764705883
sS'm:m'
p623
F0.0012254901960784314
sS'w:docGrid+linePitch'
p624
F0.8339460784313726
sS'w:snapToGrid'
p625
F0.003676470588235294
sS'm:count+val'
p626
F0.0012254901960784314
sS'w:rPr-w:specVanish+val'
p627
F0.0012254901960784314
sS'w14:lin+ang+scaled'
p628
F0.0030637254901960784
sS'wp:posOffset'
p629
F0.22181372549019607
sS'w:permStart+colFirst+colLast+edGrp'
p630
F0.0012254901960784314
sS'w:instrText+space'
p631
F0.13786764705882354
sS'w:noProof+val'
p632
F0.011029411764705883
sS'v:shape+fillcolor+gfxdata+spid+stroked+strokeweight+style+type'
p633
F0.004901960784313725
sS'w:date+fullDate'
p634
F0.0024509803921568627
sS'w:rPr-w:b'
p635
F0.4325980392156863
sS'w:rPr-w:i'
p636
F0.20588235294117646
sS'w14:schemeClr+val'
p637
F0.004901960784313725
sS'a:style'
p638
F0.0006127450980392157
sS'v:shape+adj+coordsize+fillcolor+gfxdata+path+spid+spt+strokecolor+style'
p639
F0.0006127450980392157
sS'w:sdtContent'
p640
F0.031862745098039214
sS'w:rPr-w:cs'
p641
F0.001838235294117647
sS'w:ddList'
p642
F0.003676470588235294
sS'w:trHeight+val'
p643
F0.26838235294117646
sS'w:sectPr'
p644
F0.9975490196078431
sS'wp14:pctHeight'
p645
F0.1323529411764706
sS'w:storeMappedDataAs+val'
p646
F0.004901960784313725
sS'w:spacing+after+afterAutospacing+before+beforeAutospacing'
p647
F0.07230392156862746
sS'w:pPr-w:ind+firstLine'
p648
F0.04411764705882353
sS'v:imagedata+croptop+title'
p649
F0.001838235294117647
sS'v:shape+coordsize+gfxdata+path+spid+stroked+style'
p650
F0.0006127450980392157
sS'v:fill+color2'
p651
F0.001838235294117647
sS'a:ext'
p652
F0.22855392156862744
sS'a:fontRef+idx'
p653
F0.03002450980392157
sS'v:stroke+endcap'
p654
F0.0012254901960784314
sS'a:bodyPr+rtlCol+wrap'
p655
F0.0006127450980392157
sS'v:shape+fillcolor+stroked+style+type'
p656
F0.0012254901960784314
sS'w:calcOnExit+val'
p657
F0.05698529411764706
sS'w:color+themeColor+val'
p658
F0.11029411764705882
sS'wps:bodyPr+bIns+horzOverflow+lIns+rIns+rtlCol+tIns+vert'
p659
F0.0006127450980392157
sS'w:spacing+after+afterLines+before+beforeLines'
p660
F0.00428921568627451
sS'v:shape+fillcolor+style+type+wrapcoords'
p661
F0.0006127450980392157
sS'a:pPr'
p662
F0.0006127450980392157
sS'w:docGrid+linePitch+type'
p663
F0.011029411764705883
sS'v:rect+filled+style'
p664
F0.0012254901960784314
sS'w:spacing+after'
p665
F0.24571078431372548
sS'w:t+space'
p666
F0.9926470588235294
sS'v:polyline+allowincell+coordsize+filled+gfxdata+points+spid+strokeweight+style'
p667
F0.0012254901960784314
sS'w:rPr-w:smallCaps+val'
p668
F0.0012254901960784314
sS'm:naryPr'
p669
F0.0024509803921568627
sS'a:lum+bright+contrast'
p670
F0.003676470588235294
sS'w14:gs+pos'
p671
F0.0030637254901960784
sS'v:oval+style'
p672
F0.001838235294117647
sS'w:right+color+space+sz+themeColor+themeTint+val'
p673
F0.001838235294117647
sS'v:rect+fillcolor+strokecolor+stroked+strokeweight+style'
p674
F0.0012254901960784314
sS'w:tr2bl+color+space+sz+val'
p675
F0.001838235294117647
sS'w:spacing+afterLines+line+lineRule'
p676
F0.0006127450980392157
sS'w:tc'
p677
F0.4117647058823529
sS'a:blipFill'
p678
F0.0006127450980392157
sS'a:biLevel+thresh'
p679
F0.0024509803921568627
sS'a:fillToRect+r+t'
p680
F0.0006127450980392157
sS'v:shadow+offset+on+opacity'
p681
F0.001838235294117647
sS'w14:props3d+contourW+extrusionH+prstMaterial'
p682
F0.0006127450980392157
sS'w:ind+hanging+hangingChars+left'
p683
F0.0012254901960784314
sS'w:pPr-w:spacing+line+lineRule'
p684
F0.05821078431372549
sS'w:lid+val'
p685
F0.004901960784313725
sS'w:pPr-w:pPrChange+author+date'
p686
F0.001838235294117647
sS'wpc:wpc'
p687
F0.0030637254901960784
sS'w:top+val'
p688
F0.12316176470588236
sS'v:h+polar+position+radiusrange'
p689
F0.0006127450980392157
sS'v:fill+color2+type'
p690
F0.0012254901960784314
sS'a:spLocks+noChangeArrowheads'
p691
F0.05024509803921569
sS'w10:wrap+anchorx+anchory'
p692
F0.01715686274509804
sS'a:xfrm+flipH+flipV'
p693
F0.003676470588235294
sS'w:smallCaps+val'
p694
F0.006127450980392157
sS'w:rPr-w:dstrike'
p695
F0.0006127450980392157
sS'w:noEndnote'
p696
F0.044730392156862746
sS'w:rPr-w:i+val'
p697
F0.013480392156862746
sS'v:path+connectangles+connectlocs+connecttype+textboxrect'
p698
F0.006127450980392157
sS'v:shape+coordsize+fillcolor+filled+path+style'
p699
F0.0006127450980392157
sS'v:path+connectlocs+connecttype+textpathok'
p700
F0.0006127450980392157
sS'w:pPr-w:tabs'
p701
F0.06985294117647059
sS'o:complex+ext'
p702
F0.003676470588235294
sS'w10:bordertop+type+width'
p703
F0.0024509803921568627
sS'v:shape+preferrelative+regroupid+style+type'
p704
F0.0006127450980392157
sS'v:rect+stroked+style'
p705
F0.0006127450980392157
sS'v:shape+adj+fillcolor+style+type'
p706
F0.0012254901960784314
sS'v:rect+fillcolor+gfxdata+spid+stroked+strokeweight+style'
p707
F0.001838235294117647
sS'w:tblpPr+horzAnchor+leftFromText+rightFromText+tblpX+tblpY+vertAnchor'
p708
F0.014705882352941176
sS'v:fill+color2+opacity'
p709
F0.0012254901960784314
sS'v:shadow+color+offset+offset2+opacity'
p710
F0.0006127450980392157
sS'v:oval+fillcolor+strokecolor+style'
p711
F0.0006127450980392157
sS'a:bevelT+h+w'
p712
F0.003676470588235294
sS'a:lum+contrast'
p713
F0.001838235294117647
sS'v:fill+opacity+opacity2+title+type'
p714
F0.0006127450980392157
sS'a:grpSpLocks+noChangeAspect'
p715
F0.0012254901960784314
sS'a:ln+w'
p716
F0.17647058823529413
sS'wps:bodyPr+bIns+lIns+rIns+tIns+wrap'
p717
F0.0006127450980392157
sS'v:rect+allowincell+filled+gfxdata+spid+stroked+style'
p718
F0.001838235294117647
sS'v:rect+fillcolor+hr+hralign+hrpct+hrstd+stroked+style'
p719
F0.001838235294117647
sS'a:spcBef'
p720
F0.0006127450980392157
sS'wps:bodyPr+anchor+anchorCtr+lIns+rIns+rtlCol+wrap'
p721
F0.0006127450980392157
sS'a:prstDash+val'
p722
F0.015318627450980392
sS'w14:srgbClr+val'
p723
F0.006740196078431373
sS'a:rPr+b+dirty+lang+smtClean'
p724
F0.0006127450980392157
sS'pic:spPr+bwMode'
p725
F0.29534313725490197
sS'w:tblPr-w:tblLook+firstColumn+firstRow+lastColumn+lastRow+noHBand+noVBand+val'
p726
F0.24080882352941177
sS'a:defRPr+kern'
p727
F0.0006127450980392157
sS'v:shape+alt+button+href+spid+style+type'
p728
F0.0006127450980392157
sS'o:extrusion+ext+on+rotationangle'
p729
F0.0006127450980392157
sS'w:rPr-w:iCs+val'
p730
F0.0055147058823529415
sS'a:gd+fmla'
p731
F0.01838235294117647
sS'm:limLowPr'
p732
F0.0006127450980392157
sS'w:temporary'
p733
F0.0006127450980392157
sS'a:close'
p734
F0.0030637254901960784
sS'v:h+position+xrange+yrange'
p735
F0.006127450980392157
sS'w:bottom+color+space+sz+val'
p736
F0.3700980392156863
sS'w:framePr+wrap'
p737
F0.0024509803921568627
sS'w:framePr+hAnchor+hSpace+vAnchor+wrap+x+y'
p738
F0.0012254901960784314
sS'a14:hiddenEffects'
p739
F0.007352941176470588
sS'w:ind+leftChars+right+rightChars'
p740
F0.0006127450980392157
sS'w:numberingChange+author+date+original'
p741
F0.001838235294117647
sS'w:commentRangeStart'
p742
F0.0030637254901960784
sS'w:fldChar+fldCharType+fldLock'
p743
F0.0006127450980392157
sS'w:pPr-w:contextualSpacing+val'
p744
F0.006127450980392157
sS'w:sizeAuto'
p745
F0.03982843137254902
sS'v:rect+fillcolor+gfxdata+spid+stroked+style'
p746
F0.00428921568627451
sS'a:srcRect+b+r+t'
p747
F0.001838235294117647
sS'pic:cNvPicPr'
p748
F0.3547794117647059
sS'w:spacing+before+beforeAutospacing+line+lineRule'
p749
F0.0024509803921568627
sS'w:tblPr-w:tblLook+val'
p750
F0.17034313725490197
sS'w:tblpPr+horzAnchor+leftFromText+rightFromText+tblpY'
p751
F0.0030637254901960784
sS'w:tblpPr+horzAnchor+leftFromText+tblpY+vertAnchor'
p752
F0.0006127450980392157
sS'w:insideH+color+space+sz+themeColor+themeShade+val'
p753
F0.004901960784313725
sS'v:rect+alt+filled+spid+stroked+style'
p754
F0.0006127450980392157
sS'm:deg'
p755
F0.0030637254901960784
sS'v:shape+strokeweight+style+type'
p756
F0.0012254901960784314
sS'm:den'
p757
F0.0055147058823529415
sS'v:rect+filled+gfxdata+strokecolor+style'
p758
F0.0006127450980392157
sS'a:spLocks+noChangeArrowheads+noChangeShapeType'
p759
F0.0006127450980392157
sS'w:pPr-w:spacing+before'
p760
F0.025122549019607844
sS'a:srcRect+b+r'
p761
F0.004901960784313725
sS'a:srcRect+b+t'
p762
F0.006127450980392157
sS'a:ln+cmpd+w'
p763
F0.009191176470588236
sS'w:tbl'
p764
F0.4117647058823529
sS'w:pPr-w:cnfStyle+val'
p765
F0.001838235294117647
sS'a:pPr+algn+defTabSz+eaLnBrk+fontAlgn+hangingPunct+indent+latinLnBrk+marL+marR+rtl'
p766
F0.0006127450980392157
sS'v:shape+fillcolor+filled+gfxdata+spid+stroked+style+type'
p767
F0.0012254901960784314
sS'a:gradFill+rotWithShape'
p768
F0.0024509803921568627
sS'w:rPr-w:b+val'
p769
F0.04105392156862745
sS'o:lock+ext+shapetype'
p770
F0.025122549019607844
sS'w:cols+sep+space'
p771
F0.001838235294117647
sS'mc:AlternateContent'
p772
F0.08639705882352941
sS'w:tcBorders-w:bottom+color+space+sz+val'
p773
F0.10477941176470588
sS'v:stroke+endarrow+startarrow'
p774
F0.0012254901960784314
sS'wp:cNvGraphicFramePr'
p775
F0.38909313725490197
sS'w:u+color+val'
p776
F0.011642156862745098
sS'v:path+connectlocs'
p777
F0.0006127450980392157
sS'v:shape+insetmode+spid+style+type'
p778
F0.0006127450980392157
sS'v:rect+allowincell+fillcolor+strokecolor+stroked+strokeweight+style'
p779
F0.0012254901960784314
sS'w:framePr+h+hRule+w+wrap+x+y'
p780
F0.001838235294117647
sS'w:rPr-w14:glow+rad'
p781
F0.0006127450980392157
sS'v:shape+print+style+type'
p782
F0.0006127450980392157
sS'a:spcPts+val'
p783
F0.0006127450980392157
sS'w:color+val'
p784
F0.5925245098039216
sS'w:pPr-w:ind+hanging+right'
p785
F0.0012254901960784314
sS'v:textbox+style'
p786
F0.042279411764705885
sS'v:roundrect+arcsize+fillcolor+gfxdata+spid+stroked+style'
p787
F0.0006127450980392157
sS'a:cxnSp'
p788
F0.0006127450980392157
sS'v:stroke+endarrowlength+endarrowwidth'
p789
F0.0006127450980392157
sS'w:tblOverlap+val'
p790
F0.017769607843137254
sS'w:ind+firstLine+left+right'
p791
F0.029411764705882353
sS'm:degHide+val'
p792
F0.0030637254901960784
sS'w:rPr-w:caps'
p793
F0.01715686274509804
sS'v:background+bwmode+fillcolor+targetscreensize'
p794
F0.0006127450980392157
sS'a:shade+val'
p795
F0.015931372549019607
sS'w:tblpPr+leftFromText+rightFromText+tblpX+tblpY+vertAnchor'
p796
F0.0024509803921568627
sS'a:bevel'
p797
F0.0006127450980392157
sS'v:shape+connectortype+gfxdata+spid+strokecolor+strokeweight+style+type'
p798
F0.0006127450980392157
sS'a14:shadowObscured+val'
p799
F0.0006127450980392157
sS'v:shape+filled+style+type'
p800
F0.0006127450980392157
sS'w:noProof'
p801
F0.4877450980392157
sS'v:line+allowincell+from+style+to'
p802
F0.001838235294117647
sS'a:noAutofit'
p803
F0.0661764705882353
sS'w:pPr-w:snapToGrid+val'
p804
F0.001838235294117647
sS'a:srcRect+t'
p805
F0.003676470588235294
sS'v:shape+fillcolor+gfxdata+strokecolor+strokeweight+style+type'
p806
F0.0012254901960784314
sS'a:srcRect+r'
p807
F0.006740196078431373
sS'a:srcRect+l'
p808
F0.0055147058823529415
sS'w:left+val'
p809
F0.11948529411764706
sS'w:rStyle+val'
p810
F0.49019607843137253
sS'a:srcRect+b'
p811
F0.00980392156862745
sS'w:paperSrc+other'
p812
F0.0006127450980392157
sS'o:left+color+ext'
p813
F0.0012254901960784314
sS'w:rPr-w:rPrChange+author+date'
p814
F0.0024509803921568627
sS'w:framePr+hAnchor+hSpace+vAnchor+wrap+y'
p815
F0.0006127450980392157
sS'w:framePr+hAnchor+vAnchor+w+wrap+xAlign+yAlign'
p816
F0.0006127450980392157
sS'w10:wrap+type'
p817
F0.03860294117647059
sS'm:nary'
p818
F0.0024509803921568627
sS'w:spacing+after+afterAutospacing+line+lineRule'
p819
F0.0030637254901960784
sS'w14:shadow+algn+blurRad+dir+dist+kx+ky+sx+sy'
p820
F0.003676470588235294
sS'a:lvl4pPr+algn+fontAlgn+marL+rtl'
p821
F0.0006127450980392157
sS'v:oval+filled+gfxdata+spid+strokecolor+strokeweight+style'
p822
F0.001838235294117647
sS'w:rPr-w:rStyle+val'
p823
F0.23774509803921567
sS'w:ind+right'
p824
F0.15931372549019607
sS'v:shape+coordsize+filled+gfxdata+path+spid+strokecolor+style'
p825
F0.0012254901960784314
sS'v:roundrect+arcsize+fillcolor+gfxdata+spid+strokecolor+strokeweight+style'
p826
F0.0024509803921568627
sS'w:maxLength+val'
p827
F0.010416666666666666
sS'w:tcBorders-w:right+color+space+sz+themeColor+themeShade+val'
p828
F0.003676470588235294
sS'mc:Choice+Requires'
p829
F0.08639705882352941
sS'a:lum+bright'
p830
F0.0030637254901960784
sS'v:roundrect+arcsize+fillcolor+strokecolor+strokeweight+style'
p831
F0.0006127450980392157
sS'a:lvl3pPr+algn+fontAlgn+marL+rtl'
p832
F0.0006127450980392157
sS'w:framePr+hAnchor+wrap+x+y'
p833
F0.0006127450980392157
sS'v:shape+fillcolor+filled+spid+strokecolor+strokeweight+style+type'
p834
F0.0006127450980392157
sS'm:sSubSup'
p835
F0.0012254901960784314
sS'w:ind+hanging'
p836
F0.049019607843137254
sS'w:titlePg'
p837
F0.12438725490196079
sS'w:pPr-w:spacing+after+afterAutospacing+line+lineRule'
p838
F0.0006127450980392157
sS'a14:hiddenFill'
p839
F0.031862745098039214
sS'w14:round'
p840
F0.007352941176470588
sS'v:rect+allowincell+fillcolor+stroked+style'
p841
F0.0012254901960784314
sS'v:fill+detectmouseclick'
p842
F0.011642156862745098
sS'a:cs+typeface'
p843
F0.0006127450980392157
sS'v:line+connectortype+from+gfxdata+spid+strokeweight+style+to'
p844
F0.0030637254901960784
sS'w:shd+color+fill+themeColor+val'
p845
F0.0006127450980392157
sS'a:xfrm'
p846
F0.38480392156862747
sS'w:numId+val'
p847
F0.47610294117647056
sS'm:subHide+val'
p848
F0.0006127450980392157
sS'a:xfrm+flipH+flipV+rot'
p849
F0.0006127450980392157
sS'o:lock+ext+verticies'
p850
F0.0006127450980392157
sS'w:cnfStyle+val'
p851
F0.00428921568627451
sS'wps:bodyPr+bIns+lIns+rIns+rtlCol+tIns+vert'
p852
F0.0006127450980392157
sS'w:pPr-w:spacing+after+afterAutospacing+before+beforeAutospacing+line+lineRule'
p853
F0.00428921568627451
sS'a:lumOff+val'
p854
F0.00980392156862745
sS'w:left+color+space+sz+themeColor+val'
p855
F0.012254901960784314
sS'v:group+allowoverlap+coordorigin+coordsize+editas+style+wrapcoords'
p856
F0.0006127450980392157
sS'w:pPr-w:ind+firstLine+right'
p857
F0.0024509803921568627
sS'w:tab'
p858
F0.49816176470588236
sS'w:ins+author'
p859
F0.0006127450980392157
sS'a14:shadowObscured'
p860
F0.016544117647058824
sS'w:footnotePr'
p861
F0.017769607843137254
sS'v:rect+fillcolor+gfxdata+stroked+style'
p862
F0.0006127450980392157
sS'o:lock+ext+shapetype+text'
p863
F0.00857843137254902
sS'v:shape+alt+gfxdata+style+type'
p864
F0.0006127450980392157
sS'w:tblLook+firstColumn+firstRow+lastColumn+lastRow+noHBand+noVBand+val'
p865
F0.24142156862745098
sS'w:framePr+dropCap+h+hAnchor+hRule+lines+vAnchor+wrap+x+y'
p866
F0.0006127450980392157
sS'w:shadow+val'
p867
F0.0006127450980392157
sS'w14:gradFill'
p868
F0.0030637254901960784
sS'w:tblInd+type+w'
p869
F0.19424019607843138
sS'w:listItem+displayText+value'
p870
F0.0024509803921568627
sS'w:spacing+afterAutospacing+beforeAutospacing'
p871
F0.0006127450980392157
sS'wp14:sizeRelH+relativeFrom'
p872
F0.1323529411764706
sS'w:docPartGallery+val'
p873
F0.014093137254901961
sS'v:textpath+fitshape+string+style+trim'
p874
F0.0006127450980392157
sS'wps:bodyPr'
p875
F0.025735294117647058
sS'v:shadow+color+matrix+on+origin+type'
p876
F0.0006127450980392157
sS'v:fill+color2+rotate'
p877
F0.0006127450980392157
sS'v:stroke+endarrow+joinstyle'
p878
F0.0006127450980392157
sS'w:sectPr-w:formProt+val'
p879
F0.0012254901960784314
sS'w:tcPr-w:vMerge+val'
p880
F0.02389705882352941
sS'v:path+connectlocs+connecttype+gradientshapeok+limo+textboxrect'
p881
F0.0006127450980392157
sS'w:numRestart+val'
p882
F0.006127450980392157
sS'w:pgMar+bottom+footer+gutter+header+left+right+top'
p883
F0.9865196078431373
sS'w:right+color+space+sz+themeColor+themeShade+val'
p884
F0.007352941176470588
sS'v:shape+adj+fillcolor+strokeweight+style+type'
p885
F0.0006127450980392157
sS'a:bodyPr+anchor+rtlCol'
p886
F0.0006127450980392157
sS'v:shape+strokeweight+style+type+wrapcoords'
p887
F0.0006127450980392157
sS'w:moveToRangeStart+author+date'
p888
F0.0006127450980392157
sS'o:right+color+ext'
p889
F0.0012254901960784314
sS'w:tblpPr+horzAnchor+leftFromText+rightFromText+tblpXSpec+tblpY'
p890
F0.001838235294117647
sS'w:pPr-w:ind+firstLine+left'
p891
F0.027573529411764705
sS'a:buSzTx'
p892
F0.0006127450980392157
sS'w:left+color+space+sz+val'
p893
F0.32169117647058826
sS'm:fPr'
p894
F0.0055147058823529415
sS'a:tile+algn+flip+sx+sy+tx+ty'
p895
F0.0012254901960784314
sS'v:shadow+color'
p896
F0.00857843137254902
sS'w:rPr-w:noProof+val'
p897
F0.006127450980392157
sS'v:rect+filled+strokecolor+strokeweight+style'
p898
F0.0012254901960784314
sS'a:sp3d+prstMaterial'
p899
F0.0006127450980392157
sS'w:framePr+h+hRule+wrap+x+y'
p900
F0.0006127450980392157
sS'v:shadow+offset+on+opacity+origin'
p901
F0.0012254901960784314
sS'v:shadow+color+on+opacity'
p902
F0.0006127450980392157
sS'pic:blipFill+rotWithShape'
p903
F0.015931372549019607
sS'w:adjustRightInd+val'
p904
F0.2346813725490196
sS'w:del+author+date'
p905
F0.004901960784313725
sS'v:shape+gfxdata+spid+strokeweight+style+type'
p906
F0.001838235294117647
sS'v:shape+alt+cliptowrap+fillcolor+insetpen+strokecolor+strokeweight+style+type'
p907
F0.0006127450980392157
sS'm:t+space'
p908
F0.004901960784313725
sS'wps:bodyPr+anchor+rtlCol+wrap'
p909
F0.0006127450980392157
sS'w:rtl'
p910
F0.004901960784313725
sS'w:pPr-w:pBdr'
p911
F0.011642156862745098
sS'v:roundrect+allowincell+arcsize+fillcolor+filled+gfxdata+stroked+style'
p912
F0.0006127450980392157
sS'a:ln+cap+cmpd+w'
p913
F0.0012254901960784314
sS'wps:bodyPr+anchor+anchorCtr+bIns+lIns+rIns+rot+tIns+vert+wrap'
p914
F0.014093137254901961
sS'w:sectPr-w:cols+num+space'
p915
F0.003676470588235294
sS'w:tcPr-w:shd+color+fill+themeFill+themeFillShade+val'
p916
F0.017769607843137254
sS'w:sectPr-w:docGrid+linePitch+type'
p917
F0.011029411764705883
sS'w:ffData'
p918
F0.05698529411764706
sS'v:shape+style+type+wrapcoords'
p919
F0.00428921568627451
sS'a:sysClr+lastClr+val'
p920
F0.0055147058823529415
sS'w14:ligatures+val'
p921
F0.0006127450980392157
sS'w:moveFrom+author+date'
p922
F0.0006127450980392157
sS'w:pPr-w:adjustRightInd'
p923
F0.0012254901960784314
sS'w14:checked+val'
p924
F0.007352941176470588
sS'v:shape+fillcolor+style+type'
p925
F0.0055147058823529415
sS'w:numStart+val'
p926
F0.0012254901960784314
sS'v:path+connecttype+extrusionok+fillok+shadowok+strokeok'
p927
F0.0006127450980392157
sS'w:spacing+after+afterAutospacing+before+line+lineRule'
p928
F0.0024509803921568627
sS'v:fill+color2+focus+focusposition+focussize+type'
p929
F0.0006127450980392157
sS'w:rPr'
p930
F0.9932598039215687
sS'v:path+connecttype+gradientshapeok'
p931
F0.11029411764705882
sS'a:spLocks+noEditPoints'
p932
F0.0006127450980392157
sS'w:tblpPr+horzAnchor+leftFromText+rightFromText+tblpXSpec+tblpYSpec+vertAnchor'
p933
F0.0012254901960784314
sS'wp:simplePos+x+y'
p934
F0.22426470588235295
sS'w:framePr+h+hAnchor+vAnchor+w+wrap+x+y'
p935
F0.0006127450980392157
sS'v:fill+color2+focus+method+opacity+opacity2+rotate+type'
p936
F0.0006127450980392157
sS'w:pPr-w:widowControl+val'
p937
F0.0024509803921568627
sS'v:rect+strokecolor+style+wrapcoords'
p938
F0.0006127450980392157
sS'w:tblPrEx'
p939
F0.031862745098039214
sS'v:textpath+fitpath+on+style'
p940
F0.0006127450980392157
sS'w:u+val'
p941
F0.4675245098039216
sS'a:outerShdw+blurRad+dir+dist+rotWithShape+sx+sy'
p942
F0.0006127450980392157
sS'w:tblpPr+leftFromText+rightFromText+tblpY'
p943
F0.0006127450980392157
sS'v:shape+alt+gfxdata+spid+style+type'
p944
F0.003676470588235294
sS'a:off+x+y'
p945
F0.3854166666666667
sS'w:footnoteReference'
p946
F0.05575980392156863
sS'v:path+arrowok+connectlocs+connecttype+extrusionok+gradientshapeok'
p947
F0.0006127450980392157
sS'w:sectPr-w:titlePg'
p948
F0.027573529411764705
sS'v:textpath+fitshape+on'
p949
F0.007352941176470588
sS'w14:lumMod+val'
p950
F0.0012254901960784314
sS'ma14:wrappingTextBoxFlag'
p951
F0.0024509803921568627
sS'v:stroke+joinstyle+miterlimit'
p952
F0.0006127450980392157
sS'wp14:pctWidth'
p953
F0.1323529411764706
sS'a:rPr+dirty+lang+smtClean'
p954
F0.0006127450980392157
sS'w:pPrChange+author+date'
p955
F0.001838235294117647
sS'm:sSubPr'
p956
F0.00428921568627451
sS'w:cols+equalWidth+space'
p957
F0.007965686274509803
sS'w:pPr-w:ind+left'
p958
F0.09620098039215687
sS'w:rPr-w:iCs'
p959
F0.1053921568627451
sS'w:pPr-w:keepLines+val'
p960
F0.0006127450980392157
sS'wps:txbx'
p961
F0.06311274509803921
sS'w:pos+val'
p962
F0.009191176470588236
sS'o:top+color+ext'
p963
F0.0012254901960784314
sS'a:endParaRPr+dirty+lang+sz'
p964
F0.0006127450980392157
sS'w14:checkedState+font+val'
p965
F0.007352941176470588
sS'a:spAutoFit'
p966
F0.015931372549019607
sS'v:stroke+endarrow+endarrowwidth+linestyle+startarrow+startarrowwidth'
p967
F0.0006127450980392157
sS'a:rPr+dirty+lang+smtClean+sz'
p968
F0.0006127450980392157
sS'w:listItem+value'
p969
F0.001838235294117647
sS'v:shadow+color+offset+offset2+on'
p970
F0.0012254901960784314
sS'w:shadow'
p971
F0.004901960784313725
sS'w:insideH+color+space+sz+val'
p972
F0.2028186274509804
sS'v:group+coordsize+editas+gfxdata+spid+style'
p973
F0.00428921568627451
sS'w:suppressAutoHyphens+val'
p974
F0.013480392156862746
sS'w:tcBorders'
p975
F0.24080882352941177
sS'a:endParaRPr+b+dirty+lang'
p976
F0.0006127450980392157
sS'a:graphicFrameLocks+noChangeAspect+noGrp'
p977
F0.0006127450980392157
sS'w:pPr-w:spacing+before+beforeAutospacing+line+lineRule'
p978
F0.0006127450980392157
sS'w:numPr'
p979
F0.47610294117647056
sS'w:top+color+shadow+space+sz+val'
p980
F0.004901960784313725
sS'v:stroke'
p981
F0.001838235294117647
sS'w10:anchorlock'
p982
F0.016544117647058824
sS'w:left+color+shadow+space+sz+val'
p983
F0.004901960784313725
sS'w14:prstDash+val'
p984
F0.007965686274509803
sS'v:fill+recolor+rotate+title+type'
p985
F0.0006127450980392157
sS'a:spLocks+noGrp'
p986
F0.0012254901960784314
sS'v:shape+allowincell+coordsize+filled+gfxdata+path+spid+strokeweight+style'
p987
F0.0006127450980392157
sS'w:tcBorders-w:top+color+space+sz+themeColor+val'
p988
F0.0030637254901960784
sS'o:column+color+ext'
p989
F0.0012254901960784314
sS'v:shape+filled+gfxdata+spid+strokecolor+stroked+style+type'
p990
F0.0012254901960784314
sS'w:tag+val'
p991
F0.0024509803921568627
sS'v:roundrect+allowincell+arcsize+fillcolor+filled+gfxdata+spid+style'
p992
F0.0006127450980392157
sS'a:txSp'
p993
F0.0006127450980392157
sS'w10:wrap+anchorx+side+type'
p994
F0.0006127450980392157
sS'v:imagedata+title'
p995
F0.08026960784313726
sS'a:buFontTx'
p996
F0.0006127450980392157
sS'v:textpath+fitpath+string+style+trim+xscale'
p997
F0.001838235294117647
sS'w:r'
p998
F0.9969362745098039
sS'w:p'
p999
F0.9154411764705882
sS'a:cNvPr'
p1000
F0.0006127450980392157
sS'v:path+connecttype+gradientshapeok+textboxrect'
p1001
F0.0006127450980392157
sS'w:i'
p1002
F0.5318627450980392
sS'v:shape+adj+gfxdata+spid+strokeweight+style+type'
p1003
F0.0006127450980392157
sS'w:b'
p1004
F0.9172794117647058
sS'a:lumMod+val'
p1005
F0.014093137254901961
sS'w:picture'
p1006
F0.0024509803921568627
sS'v:line+from+gfxdata+spid+strokecolor+style+to'
p1007
F0.006127450980392157
sS'w:tcBorders-w:bottom+val'
p1008
F0.026348039215686275
sS'w:tcPr-w:shd+color+fill+themeFill+themeFillTint+val'
p1009
F0.00980392156862745
sS'w:bidi'
p1010
F0.001838235294117647
sS'a:duotone'
p1011
F0.001838235294117647
sS'w:bar+val'
p1012
F0.0006127450980392157
sS'v:rect+gfxdata+spid+stroked+style'
p1013
F0.0012254901960784314
sS'w:framePr+dropCap+hAnchor+lines+vAnchor+wrap+x+y'
p1014
F0.0006127450980392157
sS'w:spacing+after+afterAutospacing+beforeAutospacing'
p1015
F0.0006127450980392157
sS'w:w+val'
p1016
F0.020833333333333332
sS'w:tblStyle+val'
p1017
F0.15870098039215685
sS'wp:docPr+hidden'
p1018
F0.0012254901960784314
sS'v:rect+fillcolor+regroupid+strokecolor+stroked+strokeweight+style'
p1019
F0.0006127450980392157
sS'w:tblPr'
p1020
F0.4117647058823529
sS'a:picLocks+noChangeArrowheads+noChangeAspect+noGrp'
p1021
F0.0006127450980392157
sS'w:endnotePr'
p1022
F0.004901960784313725
sS'v:path+arrowok+connectangles+connectlocs+connecttype+extrusionok'
p1023
F0.0006127450980392157
sS'v:path+extrusionok'
p1024
F0.0012254901960784314
sS'v:rect+filled+gfxdata+stroked+style'
p1025
F0.0006127450980392157
sS'a:softEdge+rad'
p1026
F0.00428921568627451
sS'w:insideV+color+space+sz+themeColor+val'
p1027
F0.003676470588235294
sS'v:shape+filled+gfxdata+spid+style+type'
p1028
F0.0006127450980392157
sS'o:bottom+color+ext'
p1029
F0.0012254901960784314
sS'w:autoSpaceDN+val'
p1030
F0.23345588235294118
sS'w:spacing+after+before+beforeAutospacing+line+lineRule'
p1031
F0.014705882352941176
sS'v:rect+fillcolor+filled+style'
p1032
F0.0006127450980392157
sS'a:ln+cap+w'
p1033
F0.006740196078431373
sS'v:path+connectlocs+connecttype+extrusionok+gradientshapeok+limo+textboxrect'
p1034
F0.0006127450980392157
sS'v:shape+fillcolor+filled+gfxdata+spid+strokecolor+style+type'
p1035
F0.0006127450980392157
sS'w:spacing+val'
p1036
F0.0741421568627451
sS'w:tcPr-w:vAlign+val'
p1037
F0.18198529411764705
sS'v:shape+gfxdata+strokecolor+style+type'
p1038
F0.0006127450980392157
sS'w:tcBorders-w:left+color+space+sz+themeColor+val'
p1039
F0.001838235294117647
sS'v:shape+adj+coordsize+path+strokecolor+style+type'
p1040
F0.0006127450980392157
sS'a:spLocks+noChangeArrowheads+noChangeAspect+noTextEdit'
p1041
F0.0006127450980392157
sS'v:rect+gfxdata+spid+strokecolor+strokeweight+style'
p1042
F0.0006127450980392157
sS'wps:linkedTxbx+seq'
p1043
F0.0012254901960784314
sS'w:top+color+space+sz+val'
p1044
F0.3431372549019608
sS'w:gridBefore+val'
p1045
F0.006127450980392157
sS'v:shape+filled+stroked+style+type+wrapcoords'
p1046
F0.0024509803921568627
sS'w:wBefore+type+w'
p1047
F0.0055147058823529415
sS'w:bdr+color+space+sz+val'
p1048
F0.006740196078431373
sS'wps:wsp'
p1049
F0.08517156862745098
sS'w14:cntxtAlts'
p1050
F0.0012254901960784314
sS'v:rect+filled+stroked+strokeweight+style'
p1051
F0.0006127450980392157
sS'a14:hiddenLine+w'
p1052
F0.028186274509803922
sS'm:sSubSupPr'
p1053
F0.0012254901960784314
sS'a14:hiddenLine+cmpd+w'
p1054
F0.0006127450980392157
sS'v:shape+fillcolor+gfxdata+spid+strokecolor+stroked+strokeweight+style+type'
p1055
F0.0006127450980392157
sS'a:picLocks+noChangeAspect'
p1056
F0.007352941176470588
sS'v:shape+allowincell+fillcolor+spid+stroked+style+type'
p1057
F0.0006127450980392157
sS'v:path+connectangles+connectlocs+connecttype+extrusionok+gradientshapeok+textboxrect'
p1058
F0.0006127450980392157
sS'a:nvPicPr'
p1059
F0.0006127450980392157
sS'w:tcPr-w:shd+color+fill+themeFill+val'
p1060
F0.004901960784313725
sS'w:sectPr-w:rtlGutter'
p1061
F0.0012254901960784314
sS'w:spacing+beforeAutospacing'
p1062
F0.0006127450980392157
sS'w:tblpPr+horzAnchor+leftFromText+rightFromText+tblpXSpec+tblpYSpec+topFromText'
p1063
F0.0006127450980392157
sS'v:stroke+linestyle'
p1064
F0.004901960784313725
sS'a:lvl1pPr+algn+fontAlgn+rtl'
p1065
F0.0006127450980392157
sS'w:tblpPr+bottomFromText+horzAnchor+leftFromText+rightFromText+tblpX+tblpY+vertAnchor'
p1066
F0.0006127450980392157
sS'w:bdr+val'
p1067
F0.0006127450980392157
sS'w:sdtEndPr'
p1068
F0.025735294117647058
sS'w:tblpPr+bottomFromText+horzAnchor+leftFromText+rightFromText+tblpXSpec+tblpY+vertAnchor'
p1069
F0.0006127450980392157
sS'a:fgClr'
p1070
F0.0012254901960784314
sS'a:spLocks+noChangeArrowheads+noChangeShapeType+noTextEdit'
p1071
F0.0012254901960784314
sS'a:stCxn+idx'
p1072
F0.0006127450980392157
sS'w:pPr-w:shd+color+fill+val'
p1073
F0.003676470588235294
sS'wps:bodyPr+anchor+anchorCtr+bIns+lIns+rIns+rot+tIns+upright+vert+wrap'
p1074
F0.04350490196078431
sS'w:rPr-w:sz+val'
p1075
F0.3235294117647059
sS'a:tabLst'
p1076
F0.0006127450980392157
sS'a:buClrTx'
p1077
F0.0006127450980392157
sS'w:tblHeader'
p1078
F0.02144607843137255
sS'w:background+color'
p1079
F0.015931372549019607
sS'v:path+connectangles+connectlocs+connecttype+textpathok'
p1080
F0.00857843137254902
sS'v:h+polar+position'
p1081
F0.0012254901960784314
sS'w:vanish+val'
p1082
F0.0006127450980392157
sS'pic:cNvPicPr+preferRelativeResize'
p1083
F0.0024509803921568627
sS'w:default+val'
p1084
F0.04534313725490196
sS'w:cols+equalWidth+sep+space'
p1085
F0.0006127450980392157
sS'v:shape+coordsize+fillcolor+gfxdata+path+spid+stroked+strokeweight+style'
p1086
F0.0006127450980392157
sS'v:stroke+color2+joinstyle'
p1087
F0.0006127450980392157
sS'v:shape+adj+connectortype+strokecolor+style+type'
p1088
F0.0006127450980392157
sS'v:path+arrowok+connectlocs+connecttype+textboxrect'
p1089
F0.0012254901960784314
sS'v:rect+allowincell+gfxdata+spid+stroked+style'
p1090
F0.0006127450980392157
sS'w:bottom+color+space+sz+themeColor+themeTint+val'
p1091
F0.0030637254901960784
sS'v:shape+adj+fillcolor+gfxdata+spid+stroked+strokeweight+style+type'
p1092
F0.0006127450980392157
sS'wpg:wgp'
p1093
F0.016544117647058824
sS'v:shadow+offset+on'
p1094
F0.0006127450980392157
sS'm:pos+val'
p1095
F0.0006127450980392157
sS'v:shapetype+coordsize+filled+path+preferrelative+spt+stroked'
p1096
F0.08149509803921569
sS'v:rect+filled+gfxdata+spid+strokecolor+style'
p1097
F0.0006127450980392157
sS'w10:borderleft+type+width'
p1098
F0.0024509803921568627
sS'v:shapetype+adj+coordsize+filled+path+spt'
p1099
F0.0030637254901960784
sS'v:background+bwmode+targetscreensize'
p1100
F0.0012254901960784314
sS'o:FieldCodes'
p1101
F0.003676470588235294
sS'a:grpSpLocks'
p1102
F0.012254901960784314
sS'v:h+position'
p1103
F0.001838235294117647
sS'wp:effectExtent+b+l+r+t'
p1104
F0.38909313725490197
sS'w:outlineLvl+val'
p1105
F0.12928921568627452
sS'a:ea+typeface'
p1106
F0.0006127450980392157
sS'v:rect+alt+cliptowrap+filled+insetpen+preferrelative+strokecolor+stroked+strokeweight+style'
p1107
F0.0006127450980392157
sS'w:checked'
p1108
F0.0006127450980392157
sS'm:sty+val'
p1109
F0.0055147058823529415
sS'w:rPr-w:bdr+color+frame+space+sz+val'
p1110
F0.006740196078431373
sS'm:lim'
p1111
F0.0006127450980392157
sS'a:solidFill'
p1112
F0.09865196078431372
sS'wps:bodyPr+anchor+anchorCtr+bIns+compatLnSpc+forceAA+fromWordArt+lIns+numCol+rIns+rot+rtlCol+spcCol+spcFirstLastPara+tIns+vert+wrap'
p1113
F0.0006127450980392157
sS'm:num'
p1114
F0.0055147058823529415
sS'v:group+allowincell+coordorigin+coordsize+gfxdata+spid+style'
p1115
F0.0006127450980392157
sS'v:fill+angle+color2+colors+focus+type'
p1116
F0.0006127450980392157
sS'wp:anchor+allowOverlap+behindDoc+distB+distL+distR+distT+layoutInCell+locked+relativeHeight+simplePos'
p1117
F0.22426470588235295
sS'a:fillRef+idx'
p1118
F0.03002450980392157
sS'wpg:cNvPr'
p1119
F0.0055147058823529415
sS'w:pPr-w:adjustRightInd+val'
p1120
F0.009191176470588236
sS'w:commentReference'
p1121
F0.0030637254901960784
sS'wp:wrapSquare+wrapText'
p1122
F0.0625
sS'wp:docPr'
p1123
F0.38786764705882354
sS'o:left+color+ext+weight'
p1124
F0.0006127450980392157
sS'w14:tint+val'
p1125
F0.001838235294117647
sS'w:tcBorders-w:tr2bl+val'
p1126
F0.0012254901960784314
sS'a:headEnd'
p1127
F0.17830882352941177
sS'w:pPr-w:framePr+hAnchor+vAnchor+wrap+x+y'
p1128
F0.0006127450980392157
sS'v:shape+gfxdata+spid+stroked+style+type'
p1129
F0.017769607843137254
sS'w:framePr+hAnchor+w+wrap+x+y'
p1130
F0.0012254901960784314
sS'v:shadow+offset+opacity'
p1131
F0.0012254901960784314
sS'v:path+connectlocs+connecttype+extrusionok+limo+textboxrect'
p1132
F0.0006127450980392157
sS'w:tabs'
p1133
F0.40012254901960786
sS'w:shd+color+fill+val'
p1134
F0.27205882352941174
sS'w:insideV+color+space+sz+val'
p1135
F0.20404411764705882
sS'w:pPr-w:autoSpaceDE+val'
p1136
F0.0006127450980392157
sS'w:insideV+color+space+sz+themeColor+themeTint+val'
p1137
F0.0006127450980392157
sS'v:shape+strokecolor+stroked+style+type'
p1138
F0.0006127450980392157
sS'w:cr'
p1139
F0.006740196078431373
sS'w:cs'
p1140
F0.001838235294117647
sS'v:shape+equationxml+style+type'
p1141
F0.0006127450980392157
sS'a:srcRect+l+r+t'
p1142
F0.0024509803921568627
sS'w:delText+space'
p1143
F0.0024509803921568627
sS'w:szCs+val'
p1144
F0.8780637254901961
sS'v:polyline+allowincell+coordsize+filled+points+strokeweight+style'
p1145
F0.0006127450980392157
sS'v:shape+coordsize+filled+path+strokeweight+style'
p1146
F0.0012254901960784314
sS'v:rect+fillcolor+gfxdata+strokecolor+strokeweight+style'
p1147
F0.0006127450980392157
sS'v:shape+coordsize+filled+gfxdata+spid+stroked+style'
p1148
F0.0006127450980392157
sS'w10:wrap+anchorx'
p1149
F0.011642156862745098
sS'w10:wrap+anchory'
p1150
F0.0012254901960784314
sS'v:line+allowincell+from+strokeweight+style+to'
p1151
F0.0024509803921568627
sS'a:pos+x+y'
p1152
F0.004901960784313725
sS'm:limLoc+val'
p1153
F0.0024509803921568627
sS'v:textpath+fitpath+string+style'
p1154
F0.0006127450980392157
sS'v:shape+gfxdata+spid+style+type'
p1155
F0.02389705882352941
sS'w:t'
p1156
F0.9950980392156863
sS'v:shape+gfxdata+stroked+style+type'
p1157
F0.0024509803921568627
sS'w:sectPr-w:noEndnote'
p1158
F0.03002450980392157
sS'w:spacing+after+afterLines+line+lineRule'
p1159
F0.0006127450980392157
sS'w:rPr-w:ins+author+date'
p1160
F0.003676470588235294
sS'w:pPr-w:ind+hanging'
p1161
F0.009191176470588236
sS'w:shd+color+fill+themeFill+themeFillTint+val'
p1162
F0.02022058823529412
sS'a:effectLst'
p1163
F0.049019607843137254
sS'w:pPr'
p1164
F0.9944852941176471
sS'w:fldSimple+instr'
p1165
F0.006127450980392157
sS'v:roundrect+arcsize+insetmode+spid+style'
p1166
F0.0006127450980392157
sS'w:framePr+wrap+y'
p1167
F0.0006127450980392157
sS'a:p'
p1168
F0.0006127450980392157
sS'a:r'
p1169
F0.0006127450980392157
sS'a:t'
p1170
F0.0006127450980392157
sS'v:fill+angle+color2+colors+focus+rotate+type'
p1171
F0.0024509803921568627
sS'v:rect+fillcolor+strokecolor+stroked+style'
p1172
F0.001838235294117647
sS'w:tblDescription+val'
p1173
F0.0024509803921568627
sS'a:alphaModFix'
p1174
F0.0012254901960784314
sS'v:shape+filled+gfxdata+spid+strokecolor+strokeweight+style+type'
p1175
F0.0012254901960784314
sS'w:dstrike'
p1176
F0.0024509803921568627
sS'v:shape+stroked+style+type'
p1177
F0.015318627450980392
sS'v:shape+alt+spid+style+type'
p1178
F0.006740196078431373
sS'w:permStart+edGrp'
p1179
F0.0030637254901960784
sS'w:hyperlink'
p1180
F0.009191176470588236
sS'm:rPr'
p1181
F0.0055147058823529415
sS'w14:reflection+algn+blurRad+dir+dist+endA+endPos+fadeDir+kx+ky+stA+stPos+sx+sy'
p1182
F0.0024509803921568627
sS'w:tcBorders-w:top+color+space+sz+themeColor+themeShade+val'
p1183
F0.0030637254901960784
sS'w:pPr-w:spacing+before+line+lineRule'
p1184
F0.006127450980392157
sS'v:group+coordorigin+coordsize+editas+style'
p1185
F0.001838235294117647
sS'w:specVanish+val'
p1186
F0.0012254901960784314
sS'v:shadow+opacity'
p1187
F0.0006127450980392157
sS'v:group+coordsize+editas+style'
p1188
F0.0006127450980392157
sS'w:tl2br+val'
p1189
F0.0012254901960784314
sS'a:spLocks+noChangeArrowheads+noSelect'
p1190
F0.0006127450980392157
sS'v:group+coordsize+style'
p1191
F0.0012254901960784314
sS'wp14:pctPosHOffset'
p1192
F0.0006127450980392157
sS'w:trPr'
p1193
F0.3235294117647059
sS'w:rPr-w:color+val'
p1194
F0.3014705882352941
sS'a:lnRef+idx'
p1195
F0.03002450980392157
sS'v:stroke+dashstyle+endarrow+startarrow'
p1196
F0.0006127450980392157
sS'a:endParaRPr+b+baseline+cap+i+kumimoji+lang+normalizeH+smtClean+strike+sz+u'
p1197
F0.0006127450980392157
sS'w:delInstrText+space'
p1198
F0.0006127450980392157
sS'w:spacing+after+afterAutospacing+before'
p1199
F0.0012254901960784314
sS'wpg:grpSpPr+bwMode'
p1200
F0.011029411764705883
sS'v:rect+alt+fillcolor+gfxdata+spid+stroked+style'
p1201
F0.0006127450980392157
sS'w:smallCaps'
p1202
F0.042279411764705885
sS'w:vMerge'
p1203
F0.0900735294117647
sS'v:rect+alt+filled+gfxdata+spid+stroked+style'
p1204
F0.0006127450980392157
sS'w:top+color+space+sz+themeColor+themeTint+val'
p1205
F0.001838235294117647
sS'w:rPr-w14:textFill'
p1206
F0.0055147058823529415
sS'a:clrChange'
p1207
F0.0024509803921568627
sS'w:framePr+h+hAnchor+hSpace+vAnchor+w+wrap+x+y'
p1208
F0.0012254901960784314
sS'm:groupChrPr'
p1209
F0.0006127450980392157
sS'w:tcPr-w:shd+color+fill+val'
p1210
F0.09497549019607843
sS'w:sym+char+font'
p1211
F0.07352941176470588
sS'w:tcPr-w:tcMar'
p1212
F0.01838235294117647
sS'a:txBody'
p1213
F0.0006127450980392157
sS'w:rPr-w:highlight+val'
p1214
F0.08884803921568628
sS'v:shape+fillcolor+strokecolor+strokeweight+style+type'
p1215
F0.00428921568627451
sS'w10:wrap+side+type'
p1216
F0.0006127450980392157
sS'm:sSupPr'
p1217
F0.003676470588235294
sS'v:shape+fillcolor+filled+stroked+style+type'
p1218
F0.0006127450980392157
sS'v:shape+stroked+strokeweight+style+type'
p1219
F0.0024509803921568627
sS'w:rPr-w:u+color+themeColor+themeShade'
p1220
F0.0006127450980392157
sS'a:pic'
p1221
F0.0006127450980392157
sS'wps:cNvCnPr'
p1222
F0.024509803921568627
sS'w:widowControl+val'
p1223
F0.09375
sS'a:extrusionClr'
p1224
F0.0006127450980392157
sS'w:docPartUnique'
p1225
F0.014093137254901961
sS'w:iCs+val'
p1226
F0.02267156862745098
sS'w:tcPr-w:vMerge'
p1227
F0.028799019607843136
sS'w:sectPr-w:pgMar+bottom+footer+gutter+header+left+right+top'
p1228
F0.0012254901960784314
sS'm:cGp+val'
p1229
F0.0006127450980392157
sS'v:shape+coordorigin+coordsize+path+stroked+style'
p1230
F0.0006127450980392157
sS'v:shape+connectortype+style+type'
p1231
F0.00857843137254902
sS'v:fill+angle+color2+focus+focusposition+focussize+method+type'
p1232
F0.0006127450980392157
sS'w:framePr+dropCap+hAnchor+lines+vAnchor+w+wrap+x+y'
p1233
F0.0006127450980392157
sS'w:pPr-w:ind+hanging+left'
p1234
F0.05269607843137255
sS'w:pPr-w:spacing+before+beforeAutospacing'
p1235
F0.0006127450980392157
sS'w:calcOnExit'
p1236
F0.003676470588235294
sS'v:shape+connectortype+strokeweight+style+type'
p1237
F0.003676470588235294
sS'w:keepLines'
p1238
F0.02144607843137255
sS'a:graphicFrameLocks'
p1239
F0.0704656862745098
sS'v:stroke+dashstyle+endcap'
p1240
F0.001838235294117647
sS'a:endParaRPr+dirty+lang'
p1241
F0.0006127450980392157
sS'wp:wrapTopAndBottom'
p1242
F0.011642156862745098
sS'w:pPr-w:framePr+wrap'
p1243
F0.0006127450980392157
sS'w:rPr-w:caps+val'
p1244
F0.0024509803921568627
sS'w:ind+leftChars'
p1245
F0.001838235294117647
sS'v:rect+filled+gfxdata+spid+style'
p1246
F0.0006127450980392157
sS'a:contourClr'
p1247
F0.003676470588235294
sS'w:instrText'
p1248
F0.013480392156862746
sS'a:picLocks+noChangeArrowheads'
p1249
F0.003676470588235294
sS'm:type+val'
p1250
F0.0012254901960784314
sS'v:textbox+inset+style'
p1251
F0.0196078431372549
sS'v:shape+allowincell+gfxdata+spid+stroked+style+type'
p1252
F0.0012254901960784314
sS'a:blip+link'
p1253
F0.0024509803921568627
sS'v:shadow+color+offset+on+opacity'
p1254
F0.0030637254901960784
sS'w:fldData+space'
p1255
F0.0012254901960784314
sS'v:roundrect+arcsize+filled+gfxdata+spid+strokecolor+strokeweight+style'
p1256
F0.0006127450980392157
sS'a14:imgProps'
p1257
F0.00428921568627451
sS'a14:imgLayer'
p1258
F0.00428921568627451
sS'v:imagedata+cropbottom+cropleft+cropright+croptop+title'
p1259
F0.001838235294117647
sS'w:rPr-w:smallCaps'
p1260
F0.014705882352941176
sS'v:imagedata+chromakey+title'
p1261
F0.001838235294117647
sS'w:framePr+hAnchor+hSpace+vAnchor+wrap+xAlign+yAlign'
p1262
F0.0006127450980392157
sS'w:pPr-w:contextualSpacing'
p1263
F0.007352941176470588
sS'v:stroke+endarrow'
p1264
F0.010416666666666666
sS'w:ind+firstLine+left'
p1265
F0.16482843137254902
sS'w:rPr-w:vertAlign+val'
p1266
F0.21629901960784315
sS'w:bdr+color+frame+space+sz+val'
p1267
F0.007965686274509803
sS'w:hyperlink+anchor+history'
p1268
F0.056372549019607844
sS'w:rPr-w:bdr+val'
p1269
F0.0006127450980392157
sS'w:tblPr-w:tblDescription+val'
p1270
F0.0024509803921568627
sS'a:reflection+algn+dir+dist+endPos+rotWithShape+stA+sy'
p1271
F0.0006127450980392157
sS'v:group+coordorigin+coordsize+gfxdata+spid+style'
p1272
F0.012867647058823529
sS'w:tblpPr+leftFromText+rightFromText+tblpXSpec+tblpYSpec+vertAnchor'
p1273
F0.0006127450980392157
sS'w:autoSpaceDE+val'
p1274
F0.23651960784313725
sS'w:col+space+w'
p1275
F0.015318627450980392
sS'a:alpha+val'
p1276
F0.02267156862745098
sS'v:rect+allowincell+filled+strokeweight+style'
p1277
F0.0006127450980392157
sS'v:shape+filled+gfxdata+spid+strokeweight+style+type'
p1278
F0.0006127450980392157
sS'v:rect+allowincell+fillcolor+filled+strokecolor+strokeweight+style'
p1279
F0.0006127450980392157
sS'w:br'
p1280
F0.3278186274509804
sS'w:spacing+after+line+lineRule'
p1281
F0.33026960784313725
sS'w:cols+num+space'
p1282
F0.0392156862745098
sS'w:framePr+h+hAnchor+hRule+w+wrap+x+y'
p1283
F0.0006127450980392157
sS'w:tblCaption+val'
p1284
F0.001838235294117647
sS'm:rad'
p1285
F0.0030637254901960784
sS'v:stroke+endarrow+linestyle+startarrow'
p1286
F0.0006127450980392157
sS'a:cNvGrpSpPr'
p1287
F0.0006127450980392157
sS'v:roundrect+arcsize+fillcolor+gfxdata+spid+strokecolor+style'
p1288
F0.001838235294117647
sS'v:path+connectlocs+connecttype'
p1289
F0.0006127450980392157
sS'w:tcMar'
p1290
F0.04105392156862745
sS'w:paperSrc+first+other'
p1291
F0.009191176470588236
sS'w:rPr-w:u+color+val'
p1292
F0.011642156862745098
sS'w:fldChar+fldCharType'
p1293
F0.14215686274509803
sS'w:pPr-w:framePr+wrap+x+y'
p1294
F0.0006127450980392157
sS'a:graphicFrameLocks+noChangeAspect+noSelect'
p1295
F0.0006127450980392157
sS'w:sectPr-w:docGrid+charSpace+linePitch'
p1296
F0.003676470588235294
sS'w:tblCellMar'
p1297
F0.18137254901960784
sS'w:suppressOverlap+val'
p1298
F0.0006127450980392157
sS'a:spLocks'
p1299
F0.011029411764705883
sS'w:footerReference+type'
p1300
F0.37254901960784315
sS'w:comboBox'
p1301
F0.0012254901960784314
sS'v:shape+allowincell+spid+style+type'
p1302
F0.0006127450980392157
sS'v:shape+strokecolor+strokeweight+style+type'
p1303
F0.0006127450980392157
sS'w:tblpPr+leftFromText+rightFromText+tblpY+vertAnchor'
p1304
F0.007352941176470588
sS'w:right+val'
p1305
F0.09987745098039216
sS'v:shape+allowincell+filled+stroked+style+type'
p1306
F0.0012254901960784314
sS'w:ilvl+val'
p1307
F0.47610294117647056
sS'o:extrusion+ext+lightposition+lightposition2'
p1308
F0.0006127450980392157
sS'm:oMathPara'
p1309
F0.00428921568627451
sS'w:hyperlink+anchor+history+tgtFrame+tooltip'
p1310
F0.0006127450980392157
sS'v:rect+allowoverlap+fillcolor+style'
p1311
F0.0006127450980392157
sS'a:grpSpPr'
p1312
F0.0006127450980392157
sS'w:pgSz+h+w'
p1313
F0.8125
sS'v:oval+gfxdata+spid+style'
p1314
F0.0012254901960784314
sS'w:pPr-w:keepNext+val'
p1315
F0.0030637254901960784
sS'v:fill+opacity'
p1316
F0.011029411764705883
sS'a:cNvCxnSpPr'
p1317
F0.0006127450980392157
sS'w:bidiVisual'
p1318
F0.0012254901960784314
sS'v:line+from+gfxdata+spid+style+to'
p1319
F0.004901960784313725
sS'v:path+connectangles+connectlocs+connecttype+extrusionok+textboxrect'
p1320
F0.0012254901960784314
sS'a:pathLst'
p1321
F0.006127450980392157
sS'v:shape+connectortype+strokecolor+strokeweight+style+type'
p1322
F0.0024509803921568627
sS'a14:sharpenSoften+amount'
p1323
F0.0012254901960784314
sS'w:tblBorders'
p1324
F0.24080882352941177
sS'w:gridCol+w'
p1325
F0.4117647058823529
sS'w:text'
p1326
F0.00857843137254902
sS'w:tab+leader+pos+val'
p1327
F0.04595588235294118
sS'a:headEnd+len+type+w'
p1328
F0.003676470588235294
sS'v:line+allowincell+from+gfxdata+spid+strokeweight+style+to'
p1329
F0.0024509803921568627
sS'v:shape+coordsize+fillcolor+path+strokeweight+style'
p1330
F0.0006127450980392157
sS'a:cxn+ang'
p1331
F0.004901960784313725
sS'wps:bodyPr+anchor+anchorCtr+bIns+compatLnSpc+forceAA+fromWordArt+horzOverflow+lIns+numCol+rIns+rot+rtlCol+spcCol+spcFirstLastPara+tIns+vert+vertOverflow+wrap'
p1332
F0.02389705882352941
sS'v:group+coordsize+gfxdata+spid+style'
p1333
F0.007965686274509803
sS'w:pgNumType+chapSep+chapStyle+start'
p1334
F0.0006127450980392157
sS'w:rPr-w:color+themeColor+val'
p1335
F0.05024509803921569
sS'wp14:pctPosVOffset'
p1336
F0.0012254901960784314
sS'w:rPr-w:rtl'
p1337
F0.00428921568627451
sS'wp14:sizeRelV+relativeFrom'
p1338
F0.1323529411764706
sS'v:shape+allowoverlap+alt+button+href+style+target+type+wrapcoords'
p1339
F0.0006127450980392157
sS'a:rPr+baseline+dirty+lang+smtClean+sz'
p1340
F0.0006127450980392157
sS'w:tblpPr+horzAnchor+leftFromText+rightFromText+tblpXSpec+tblpYSpec'
p1341
F0.001838235294117647
sS'a:rot+lat+lon+rev'
p1342
F0.004901960784313725
sS'wpg:grpSp'
p1343
F0.004901960784313725
sS'v:group+coordorigin+coordsize+style'
p1344
F0.00980392156862745
sS'a:spcAft'
p1345
F0.0006127450980392157
sS'w:framePr+hSpace+vSpace+w+wrap+y'
p1346
F0.0006127450980392157
sS'a:path+h+w'
p1347
F0.00428921568627451
sS'w:ind+hanging+hangingChars+left+leftChars'
p1348
F0.0006127450980392157
sS'a:alphaModFix+amt'
p1349
F0.0012254901960784314
sS'v:shape+stroked+style+type+wrapcoords'
p1350
F0.0006127450980392157
sS'm:begChr+val'
p1351
F0.0024509803921568627
sS'wps:bodyPr+anchor'
p1352
F0.0006127450980392157
sS'w:hyperlink+anchor+history+tgtFrame'
p1353
F0.0030637254901960784
sS'w:contextualSpacing'
p1354
F0.04350490196078431
sS'a:chOff+x+y'
p1355
F0.01715686274509804
sS'v:shape+allowincell+strokeweight+style+type'
p1356
F0.0006127450980392157
sS'v:stroke+startarrowwidth'
p1357
F0.0006127450980392157
sS'a:srcRect'
p1358
F0.28370098039215685
sS'mc:Fallback'
p1359
F0.08639705882352941
sS'v:stroke+color2+filltype+title'
p1360
F0.0006127450980392157
sS'w:keepNext+val'
p1361
F0.014093137254901961
sS'w:noWrap'
p1362
F0.05514705882352941
sS'w:insideV+val'
p1363
F0.001838235294117647
sS'v:shape+allowincell+gfxdata+spid+style+type'
p1364
F0.0006127450980392157
sS'w10:borderright+type+width'
p1365
F0.0024509803921568627
sS'w:rPr-w:color+themeColor+themeShade+val'
p1366
F0.017769607843137254
sS'a:srcRect+b+l'
p1367
F0.0012254901960784314
sS'w:pPr-w:shd+color+fill+themeFill+themeFillShade+val'
p1368
F0.0006127450980392157
sS'w:rPrChange+author'
p1369
F0.0012254901960784314
sS'w14:textFill'
p1370
F0.0055147058823529415
sS'v:shape+allowincell+style+type'
p1371
F0.0006127450980392157
sS'w:rPr-w:position+val'
p1372
F0.015931372549019607
sS'w:rPr-w14:cntxtAlts'
p1373
F0.0012254901960784314
sS'a:pt+x+y'
p1374
F0.0055147058823529415
sS'w:bibliography'
p1375
F0.0006127450980392157
sS'w:tab+pos+val'
p1376
F0.3939950980392157
sS'w:tcPr'
p1377
F0.4117647058823529
sS'v:stroke+startarrow+startarrowlength+startarrowwidth'
p1378
F0.0006127450980392157
sS'w:ind+firstLine+firstLineChars+left+right'
p1379
F0.0006127450980392157
sS'v:shape+alt+spid+style+type+wrapcoords'
p1380
F0.0006127450980392157
sS'w:spacing+after+before+beforeLines'
p1381
F0.0012254901960784314
sS'w:rPr-w:shd+color+fill+themeFill+val'
p1382
F0.0012254901960784314
sS'w:pgMar+bottom+footer+gutter+left+right+top'
p1383
F0.0006127450980392157
sS'v:h+position+xrange'
p1384
F0.011642156862745098
sS'o:column+color+ext+weight'
p1385
F0.0006127450980392157
sS'w:hyperlink+anchor+history+tooltip'
p1386
F0.004901960784313725
sS'w:spacing+line+lineRule'
p1387
F0.30269607843137253
sS'v:textbox+inset'
p1388
F0.025122549019607844
sS'w:sectPr-w:docGrid+type'
p1389
F0.0006127450980392157
sS'w:pgBorders+offsetFrom'
p1390
F0.010416666666666666
sS'w:hyperlink+history+tgtFrame+tooltip'
p1391
F0.006740196078431373
sS'a:outerShdw+algn+blurRad+dir+dist+kx+ky+rotWithShape'
p1392
F0.0006127450980392157
sS'v:shape+alt+button+href+style+type'
p1393
F0.0006127450980392157
sS'v:shape+allowincell+fillcolor+strokecolor+strokeweight+style+type'
p1394
F0.0006127450980392157
sS'a:blip+cstate'
p1395
F0.21752450980392157
sS'v:shape+fillcolor+gfxdata+spid+style+type'
p1396
F0.0030637254901960784
sS'w:rPr-w:del+author+date'
p1397
F0.0024509803921568627
sS'w:left+color+space+sz+themeColor+themeTint+val'
p1398
F0.001838235294117647
sS'w:pPr-w:sectPr'
p1399
F0.1170343137254902
sS'v:fill+color2+title+type'
p1400
F0.0012254901960784314
sS'v:stroke+endarrowlength+endarrowwidth+startarrowlength+startarrowwidth'
p1401
F0.0006127450980392157
sS'w:textInput'
p1402
F0.04656862745098039
sS'w:adjustRightInd'
p1403
F0.012254901960784314
sS'v:shape+allowincell+coordsize+fillcolor+path+stroked+style'
p1404
F0.0006127450980392157
sS'a14:useLocalDpi+val'
p1405
F0.20465686274509803
sS'w:checked+val'
p1406
F0.022058823529411766
sS'a:fillRect'
p1407
F0.35355392156862747
sS'v:shape+fillcolor+strokecolor+stroked+strokeweight+style+type'
p1408
F0.0006127450980392157
sS'm:nor'
p1409
F0.0012254901960784314
sS'w:ind+firstLine+left+leftChars'
p1410
F0.0006127450980392157
sS'm:chr+val'
p1411
F0.0030637254901960784
sS'v:shape+cliptowrap+filled+insetpen+stroked+strokeweight+style+type'
p1412
F0.0006127450980392157
sS'w:i+val'
p1413
F0.051470588235294115
sS'a:gsLst'
p1414
F0.0024509803921568627
sS'v:stroke+endarrow+endarrowlength+endarrowwidth+startarrow+startarrowwidth'
p1415
F0.0006127450980392157
sS'v:shape+filled+gfxdata+insetpen+spid+stroked+style+type'
p1416
F0.0006127450980392157
sS'v:shapetype+coordsize+filled+oned+path+spt'
p1417
F0.0196078431372549
sS'v:shape+spid+stroked+strokeweight+style+type'
p1418
F0.0006127450980392157
sS'w14:glow+rad'
p1419
F0.0012254901960784314
sS'w:pgNumType+start'
p1420
F0.056372549019607844
sS'v:shape+spid+stroked+style+type'
p1421
F0.0006127450980392157
sS'a:grpSp'
p1422
F0.0006127450980392157
sS'v:rect+gfxdata+spid+style'
p1423
F0.0055147058823529415
sS'v:path+arrowok+connectlocs+connecttype+gradientshapeok+textboxrect'
p1424
F0.0006127450980392157
sS'a14:saturation+sat'
p1425
F0.001838235294117647
sS'w:vMerge+val'
p1426
F0.09068627450980392
sS'v:oval+allowincell+gfxdata+spid+style'
p1427
F0.0006127450980392157
sS'v:rect+cliptowrap+filled+insetpen+preferrelative+stroked+style'
p1428
F0.0006127450980392157
sS'a:cxnSpLocks'
p1429
F0.001838235294117647
sS'w:dateFormat+val'
p1430
F0.004901960784313725
sS'w14:extrusionClr'
p1431
F0.0006127450980392157
sS'v:shape+gfxdata+spid+strokecolor+stroked+strokeweight+style+type'
p1432
F0.0012254901960784314
sS'w:spacing+after+afterLines+before+beforeLines+line+lineRule'
p1433
F0.001838235294117647
sS'v:path+connecttype'
p1434
F0.00428921568627451
sS'v:path+arrowok+connectangles+connectlocs+connecttype'
p1435
F0.00857843137254902
sS'w:rPr-w14:shadow+algn+blurRad+dir+dist+kx+ky+sx+sy'
p1436
F0.0012254901960784314
sS'w:tcPr-w:textDirection+val'
p1437
F0.00428921568627451
sS'v:shape+adj+gfxdata+spid+strokecolor+style+type'
p1438
F0.0006127450980392157
sS'lc:lockedCanvas'
p1439
F0.0006127450980392157
sS'v:shape+coordorigin+coordsize+filled+path+strokecolor+strokeweight+style'
p1440
F0.001838235294117647
sS'a:defRPr+kern+sz'
p1441
F0.0006127450980392157
sS'a:path+path'
p1442
F0.0006127450980392157
sS'a:nvCxnSpPr'
p1443
F0.0006127450980392157
sS'v:shape+coordsize+filled+gfxdata+path+spid+style'
p1444
F0.0006127450980392157
sS'w:sdtPr'
p1445
F0.031862745098039214
sS'v:fill+color2+focus+type'
p1446
F0.0012254901960784314
sS'w:framePr+wrap+x+y'
p1447
F0.0012254901960784314
sS'w:keepNext'
p1448
F0.05330882352941176
sS'v:shape+coordsize+fillcolor+filled+path+strokecolor+strokeweight+style'
p1449
F0.0006127450980392157
sS'w:webHidden'
p1450
F0.03125
sS'w:top+type+w'
p1451
F0.08149509803921569
sS'w:effect+val'
p1452
F0.0006127450980392157
sS'w:lnNumType+countBy'
p1453
F0.0012254901960784314
sS'w:ins+author+date'
p1454
F0.010416666666666666
sS'v:shape+connectortype+fillcolor+filled+gfxdata+spid+strokecolor+strokeweight+style+type'
p1455
F0.0006127450980392157
sS'a:prstDash'
p1456
F0.0006127450980392157
sS'm:sub'
p1457
F0.00428921568627451
sS'a:chExt+cx+cy'
p1458
F0.01715686274509804
sS'wps:cNvSpPr'
p1459
F0.03860294117647059
sS'v:shape+adj+filled+gfxdata+spid+strokecolor+strokeweight+style+type'
p1460
F0.0012254901960784314
sS'a:defRPr+lang'
p1461
F0.0006127450980392157
sS'v:shape+coordsize+filled+gfxdata+path+spid+strokeweight+style'
p1462
F0.001838235294117647
sS'w:cnfStyle+evenHBand+evenVBand+firstColumn+firstRow+firstRowFirstColumn+firstRowLastColumn+lastColumn+lastRow+lastRowFirstColumn+lastRowLastColumn+oddHBand+oddVBand+val'
p1463
F0.007965686274509803
sS'a:xfrm+rot'
p1464
F0.00980392156862745
sS'm:sup'
p1465
F0.00428921568627451
sS'w:spacing+after+afterLines'
p1466
F0.0012254901960784314
sS'w14:textOutline+algn+cap+cmpd+w'
p1467
F0.007965686274509803
sS'w:highlight+val'
p1468
F0.08946078431372549
sS'o:lock+aspectratio+ext+selection'
p1469
F0.0006127450980392157
sS'w:pageBreakBefore+val'
p1470
F0.0006127450980392157
sS'w:helpText+type+val'
p1471
F0.0012254901960784314
sS'w14:checkbox'
p1472
F0.007352941176470588
sS'w:spacing+after+afterAutospacing'
p1473
F0.009191176470588236
sS'w:spacing+before+beforeLines+line+lineRule'
p1474
F0.0012254901960784314
sS'a:nvSpPr'
p1475
F0.0006127450980392157
sS'a:picLocks+noChangeArrowheads+noChangeAspect'
p1476
F0.2867647058823529
sS'w:left+color+space+sz+themeColor+themeShade+val'
p1477
F0.007352941176470588
sS'w:hyperlink+history'
p1478
F0.4074754901960784
sS'w:outline'
p1479
F0.0024509803921568627
sS'v:rect+fillcolor+strokecolor+strokeweight+style'
p1480
F0.001838235294117647
sS'w:spacing+after+before+line+lineRule'
p1481
F0.0900735294117647
sS'w:tcBorders-w:top+color+space+sz+val'
p1482
F0.0545343137254902
sS've:Fallback'
p1483
F0.0012254901960784314
sS'w10:wrap+anchory+type'
p1484
F0.001838235294117647
sS'v:rect+style'
p1485
F0.00857843137254902
sS'a14:backgroundRemoval+b+l+r+t'
p1486
F0.0006127450980392157
sS'w:pgSz+h+orient+w'
p1487
F0.03370098039215686
sS'w:pPr-w:pageBreakBefore'
p1488
F0.0012254901960784314
sS'w:dropDownList'
p1489
F0.001838235294117647
sS'v:rect+strokecolor+strokeweight+style'
p1490
F0.0006127450980392157
sS'v:shadow+color+obscured+on'
p1491
F0.0006127450980392157
sS'w:rPr-w:bCs'
p1492
F0.21752450980392157
sS'w:framePr+anchorLock+hAnchor+hSpace+vAnchor+wrap+x+y'
p1493
F0.0006127450980392157
sS'w:formProt+val'
p1494
F0.007965686274509803
sS'w:autoSpaceDE'
p1495
F0.014705882352941176
sS'v:polyline+allowincell+coordsize+filled+points+style'
p1496
F0.0006127450980392157
sS'm:oMath'
p1497
F0.009191176470588236
sS'v:shape+style+type'
p1498
F0.034926470588235295
sS'v:shape+allowoverlap+gfxdata+spid+stroked+style+type'
p1499
F0.0006127450980392157
sS'w:rPr-w:webHidden'
p1500
F0.029411764705882353
sS'w:ind+firstLine+right'
p1501
F0.014093137254901961
sS'v:textpath+fitpath+string+style+trim'
p1502
F0.006127450980392157
sS'v:shape+fillcolor+spid+stroked+style+type'
p1503
F0.0006127450980392157
sS'o:lock+aspectratio+ext+text'
p1504
F0.0006127450980392157
sS'a:moveTo'
p1505
F0.0055147058823529415
sS'w:pgBorders'
p1506
F0.001838235294117647
sS'v:shape+alt+coordsize+gfxdata+path+spid+strokecolor+stroked+strokeweight+style+type'
p1507
F0.0006127450980392157
sS'w:pageBreakBefore'
p1508
F0.012867647058823529
sS'wps:bodyPr+anchor+bIns+lIns+rIns+rtlCol+tIns+vert'
p1509
F0.0006127450980392157
sS'w:vanish'
p1510
F0.02144607843137255
sS'w:pPr-w:ind+hanging+left+right'
p1511
F0.0030637254901960784
sS'v:line+connectortype+from+gfxdata+spid+strokecolor+strokeweight+style+to'
p1512
F0.0024509803921568627
sS'o:extrusion+color+diffusity+ext+on+render+shininess'
p1513
F0.0006127450980392157
sS'a:rPr+b+dirty+lang+smtClean+sz'
p1514
F0.0006127450980392157
sS'a:hlinkClick+tgtFrame+tooltip'
p1515
F0.001838235294117647
sS'w:rPr-w:rPrChange+author'
p1516
F0.0012254901960784314
sS'w:pPr-w:spacing+after+afterLines+before+beforeLines'
p1517
F0.0006127450980392157
sS'v:shape+preferrelative+style+type'
p1518
F0.003676470588235294
sS'v:fill+recolor+type'
p1519
F0.0006127450980392157
sS'w:gridAfter+val'
p1520
F0.029411764705882353
sS'v:fill+color2+colors+focus+rotate+type'
p1521
F0.0006127450980392157
sS'a:rect+b+l+r+t'
p1522
F0.006127450980392157
sS'm:acc'
p1523
F0.0006127450980392157
sS'w:tblpPr+leftFromText+rightFromText+vertAnchor'
p1524
F0.0012254901960784314
sS'o:bottom+color+ext+weight'
p1525
F0.0006127450980392157
sS'v:shape+strokecolor+style+type'
p1526
F0.0024509803921568627
sS'o:lock+ext+text'
p1527
F0.0024509803921568627
sS'm:supHide+val'
p1528
F0.0006127450980392157
sS'w:pPr-w:ind+right'
p1529
F0.02267156862745098
sS'a:lvl3pPr+algn+defTabSz+eaLnBrk+hangingPunct+latinLnBrk+marL+rtl'
p1530
F0.0006127450980392157
sS'a:endParaRPr+dirty+lang+smtClean'
p1531
F0.0006127450980392157
sS'w:pPr-w:framePr+hAnchor+hRule+vAnchor+w+wrap+xAlign+yAlign'
p1532
F0.0006127450980392157
sS'w:pPr-w:spacing+after'
p1533
F0.0428921568627451
sS'a:clrTo'
p1534
F0.0024509803921568627
sS'w:trHeight+hRule+val'
p1535
F0.03676470588235294
sS'v:fill+color2+focus+focusposition+focussize+method+opacity+opacity2+type'
p1536
F0.0006127450980392157
sS'v:shadow+color+offset+on'
p1537
F0.0012254901960784314
sS'a:ln'
p1538
F0.18933823529411764
sS'v:path+arrowok+connectangles+connectlocs+connecttype+textboxrect'
p1539
F0.0006127450980392157
sS'w:spacing+afterAutospacing+before+beforeAutospacing+line+lineRule'
p1540
F0.0006127450980392157
sS've:AlternateContent'
p1541
F0.0012254901960784314
sS'a:round'
p1542
F0.024509803921568627
sS'v:stroke+filltype+title'
p1543
F0.0006127450980392157
sS'w:spacing+before+beforeAutospacing'
p1544
F0.010416666666666666
sS'o:OLEObject+DrawAspect+ObjectID+ProgID+ShapeID+Type'
p1545
F0.03615196078431373
sS'w:bottom+color+space+sz+themeColor+val'
p1546
F0.012254901960784314
sS'v:rect+fillcolor+gfxdata+strokecolor+style'
p1547
F0.0006127450980392157
sS'pic:spPr'
p1548
F0.11090686274509803
sS'v:rect+fillcolor+gfxdata+spid+strokeweight+style'
p1549
F0.0006127450980392157
sS'w:vAlign+val'
p1550
F0.22732843137254902
sS'v:shape+fillcolor+gfxdata+style+type'
p1551
F0.0006127450980392157
sS'w:tblCellSpacing+type+w'
p1552
F0.03431372549019608
sS'w:tcBorders-w:right+val'
p1553
F0.09436274509803921
sS'w:paperSrc+first'
p1554
F0.0012254901960784314
sS'a:ln+algn+w'
p1555
F0.0024509803921568627
sS'w:lock+val'
p1556
F0.001838235294117647
sS'w10:wrap+side'
p1557
F0.0012254901960784314
sS'w:entryMacro+val'
p1558
F0.0006127450980392157
sS'a:cNvSpPr'
p1559
F0.0006127450980392157
sS'w:pict'
p1560
F0.22303921568627452
sS'v:shadow+color+offset+offset2+on+opacity+type'
p1561
F0.0024509803921568627
sS'v:textpath+string+style'
p1562
F0.0006127450980392157
sS'w:tcBorders-w:right+color+space+sz+themeColor+themeTint+val'
p1563
F0.0006127450980392157
sS'w:moveFromRangeEnd'
p1564
F0.0006127450980392157
sS'w:citation'
p1565
F0.0006127450980392157
sS'w:right+type+w'
p1566
F0.1795343137254902
sS'a:lvl2pPr+algn+defTabSz+eaLnBrk+hangingPunct+latinLnBrk+marL+rtl'
p1567
F0.0006127450980392157
sS'w:pPr-w:outlineLvl+val'
p1568
F0.012867647058823529
sS'w:spacing+before'
p1569
F0.12806372549019607
sS'a:stretch'
p1570
F0.35784313725490197
sS'w:insideH+color+space+sz+themeColor+val'
p1571
F0.003676470588235294
sS'w:pBdr'
p1572
F0.1323529411764706
sS'm:endChr+val'
p1573
F0.0024509803921568627
sS'w:background+color+themeColor'
p1574
F0.0006127450980392157
sS'w:date'
p1575
F0.0030637254901960784
sS'v:shape+allowoverlap+strokeweight+style+type'
p1576
F0.0006127450980392157
sS'w:framePr+hSpace+vAnchor+wrap+yAlign'
p1577
F0.0006127450980392157
sS'w:tcBorders-w:left+color+space+sz+val'
p1578
F0.031862745098039214
sS'v:shape+alt+bullet+spid+style+type'
p1579
F0.0006127450980392157
sS'a14:imgEffect'
p1580
F0.00428921568627451
sS'w:rPr-w:effect+val'
p1581
F0.0006127450980392157
sS'm:oMathParaPr'
p1582
F0.0012254901960784314
sS'v:shapetype+coordsize+path+spt'
p1583
F0.11090686274509803
sS'wpc:bg'
p1584
F0.0030637254901960784
sS'w:suppressAutoHyphens'
p1585
F0.03002450980392157
sS'w:spacing+afterLines+beforeLines'
p1586
F0.00428921568627451
sS'w:tblGrid'
p1587
F0.4117647058823529
sS'a14:brightnessContrast+bright'
p1588
F0.0006127450980392157
sS'a:endCxn+idx'
p1589
F0.0006127450980392157
sS'w:tblW+type+w'
p1590
F0.4117647058823529
sS'v:roundrect+arcsize+filled+strokecolor+style'
p1591
F0.0006127450980392157
sS'w:ind+hanging+left'
p1592
F0.23284313725490197
sS'w:kinsoku+val'
p1593
F0.003676470588235294
sS'w:tcPr-w:hideMark'
p1594
F0.0900735294117647
sS'w:attr+val'
p1595
F0.03002450980392157
s.